
C:\Users\WESLEY~1.FUR\AppData\Local\Temp\arduino_build_472881/Qwiic_Joystick.ino.elf:     file format elf32-avr


Disassembly of section .text:

00000000 <__vectors>:
__vectors():
   0:	20 c0       	rjmp	.+64     	; 0x42 <__ctors_end>
   2:	3a c0       	rjmp	.+116    	; 0x78 <__bad_interrupt>
   4:	95 c3       	rjmp	.+1834   	; 0x730 <__vector_2>
   6:	38 c0       	rjmp	.+112    	; 0x78 <__bad_interrupt>
   8:	37 c0       	rjmp	.+110    	; 0x78 <__bad_interrupt>
   a:	c9 c4       	rjmp	.+2450   	; 0x99e <__vector_5>
   c:	35 c0       	rjmp	.+106    	; 0x78 <__bad_interrupt>
   e:	34 c0       	rjmp	.+104    	; 0x78 <__bad_interrupt>
  10:	33 c0       	rjmp	.+102    	; 0x78 <__bad_interrupt>
  12:	32 c0       	rjmp	.+100    	; 0x78 <__bad_interrupt>
  14:	31 c0       	rjmp	.+98     	; 0x78 <__bad_interrupt>
  16:	30 c0       	rjmp	.+96     	; 0x78 <__bad_interrupt>
  18:	2f c0       	rjmp	.+94     	; 0x78 <__bad_interrupt>
  1a:	6d c2       	rjmp	.+1242   	; 0x4f6 <__vector_13>
  1c:	b4 c2       	rjmp	.+1384   	; 0x586 <__vector_14>

0000001e <__trampolines_end>:
__trampolines_start():
  1e:	01 02       	muls	r16, r17
  20:	00 00       	nop
  22:	04 00       	.word	0x0004	; ????

00000024 <digital_pin_to_bit_mask_PGM>:
  24:	01 02 04 08 10 20                                   ..... 

0000002a <digital_pin_to_port_PGM>:
  2a:	02 02 02 02 02 02                                   ......

00000030 <port_to_input_PGM>:
  30:	00 00 00 00 36 00                                   ....6.

00000036 <port_to_output_PGM>:
  36:	00 00 00 00 38 00                                   ....8.

0000003c <port_to_mode_PGM>:
  3c:	00 00 00 00 37 00                                   ....7.

00000042 <__ctors_end>:
__dtors_end():
  42:	11 24       	eor	r1, r1
  44:	1f be       	out	0x3f, r1	; 63
  46:	cf e5       	ldi	r28, 0x5F	; 95
  48:	d2 e0       	ldi	r29, 0x02	; 2
  4a:	de bf       	out	0x3e, r29	; 62
  4c:	cd bf       	out	0x3d, r28	; 61

0000004e <__do_copy_data>:
__do_copy_data():
  4e:	10 e0       	ldi	r17, 0x00	; 0
  50:	a0 e6       	ldi	r26, 0x60	; 96
  52:	b0 e0       	ldi	r27, 0x00	; 0
  54:	ec e8       	ldi	r30, 0x8C	; 140
  56:	fa e0       	ldi	r31, 0x0A	; 10
  58:	02 c0       	rjmp	.+4      	; 0x5e <__do_copy_data+0x10>
  5a:	05 90       	lpm	r0, Z+
  5c:	0d 92       	st	X+, r0
  5e:	a8 38       	cpi	r26, 0x88	; 136
  60:	b1 07       	cpc	r27, r17
  62:	d9 f7       	brne	.-10     	; 0x5a <__do_copy_data+0xc>

00000064 <__do_clear_bss>:
__do_clear_bss():
  64:	20 e0       	ldi	r18, 0x00	; 0
  66:	a8 e8       	ldi	r26, 0x88	; 136
  68:	b0 e0       	ldi	r27, 0x00	; 0
  6a:	01 c0       	rjmp	.+2      	; 0x6e <.do_clear_bss_start>

0000006c <.do_clear_bss_loop>:
  6c:	1d 92       	st	X+, r1

0000006e <.do_clear_bss_start>:
  6e:	a4 3c       	cpi	r26, 0xC4	; 196
  70:	b2 07       	cpc	r27, r18
  72:	e1 f7       	brne	.-8      	; 0x6c <.do_clear_bss_loop>
.do_clear_bss_start():
  74:	7f d4       	rcall	.+2302   	; 0x974 <main>
  76:	08 c5       	rjmp	.+2576   	; 0xa88 <_exit>

00000078 <__bad_interrupt>:
__vector_1():
  78:	c3 cf       	rjmp	.-122    	; 0x0 <__vectors>

0000007a <buttonInterrupt()>:
_Z15buttonInterruptv():
C:\Users\wesley.furuya\Documents\GitHub\Qwiic_Joystick\Firmware\ATtiny85 Firmware\Qwiic_Joystick/interrupts.ino:17


//Called any time the pin changes state
void buttonInterrupt()
{
  if (digitalRead(Button_Pin) == LOW) //User has released the button, we have completed a click cycle
  7a:	81 e0       	ldi	r24, 0x01	; 1
  7c:	40 d4       	rcall	.+2176   	; 0x8fe <digitalRead>
  7e:	89 2b       	or	r24, r25
  80:	19 f4       	brne	.+6      	; 0x88 <buttonInterrupt()+0xe>
C:\Users\wesley.furuya\Documents\GitHub\Qwiic_Joystick\Firmware\ATtiny85 Firmware\Qwiic_Joystick/interrupts.ino:19
  {
    registerMap.Button_Status = 1; //Set the clicked bit
  82:	81 e0       	ldi	r24, 0x01	; 1
  84:	80 93 77 00 	sts	0x0077, r24	; 0x800077 <registerMap+0x8>
  88:	08 95       	ret

0000008a <EERef::update(unsigned char)>:
_ZN5EERef6updateEh():
C:\Users\wesley.furuya\AppData\Local\Arduino15\packages\ATTinyCore\hardware\avr\1.2.3\libraries\EEPROM/EEPROM.h:59
    EERef &operator &=( uint8_t in )     { return *this = **this & in; }
    EERef &operator |=( uint8_t in )     { return *this = **this | in; }
    EERef &operator <<=( uint8_t in )    { return *this = **this << in; }
    EERef &operator >>=( uint8_t in )    { return *this = **this >> in; }
    
    EERef &update( uint8_t in )          { return  in != *this ? *this = in : *this; }
  8a:	ef 92       	push	r14
  8c:	ff 92       	push	r15
  8e:	0f 93       	push	r16
  90:	1f 93       	push	r17
  92:	cf 93       	push	r28
  94:	df 93       	push	r29
  96:	1f 92       	push	r1
  98:	cd b7       	in	r28, 0x3d	; 61
  9a:	de b7       	in	r29, 0x3e	; 62
  9c:	7c 01       	movw	r14, r24
_ZNK5EERefdeEv():
C:\Users\wesley.furuya\AppData\Local\Arduino15\packages\ATTinyCore\hardware\avr\1.2.3\libraries\EEPROM/EEPROM.h:42

    EERef( const int index )
        : index( index )                 {}
    
    //Access/read members.
    uint8_t operator*() const            { return eeprom_read_byte( (uint8_t*) index ); }
  9e:	fc 01       	movw	r30, r24
  a0:	00 81       	ld	r16, Z
  a2:	11 81       	ldd	r17, Z+1	; 0x01
  a4:	c8 01       	movw	r24, r16
  a6:	69 83       	std	Y+1, r22	; 0x01
  a8:	d9 d4       	rcall	.+2482   	; 0xa5c <eeprom_read_byte>
_ZN5EERef6updateEh():
C:\Users\wesley.furuya\AppData\Local\Arduino15\packages\ATTinyCore\hardware\avr\1.2.3\libraries\EEPROM/EEPROM.h:59
    EERef &operator &=( uint8_t in )     { return *this = **this & in; }
    EERef &operator |=( uint8_t in )     { return *this = **this | in; }
    EERef &operator <<=( uint8_t in )    { return *this = **this << in; }
    EERef &operator >>=( uint8_t in )    { return *this = **this >> in; }
    
    EERef &update( uint8_t in )          { return  in != *this ? *this = in : *this; }
  aa:	69 81       	ldd	r22, Y+1	; 0x01
  ac:	68 17       	cp	r22, r24
  ae:	11 f0       	breq	.+4      	; 0xb4 <EERef::update(unsigned char)+0x2a>
_ZN5EERefaSEh():
C:\Users\wesley.furuya\AppData\Local\Arduino15\packages\ATTinyCore\hardware\avr\1.2.3\libraries\EEPROM/EEPROM.h:47
    uint8_t operator*() const            { return eeprom_read_byte( (uint8_t*) index ); }
    operator uint8_t() const       { return **this; }
    
    //Assignment/write members.
    EERef &operator=( const EERef &ref ) { return *this = *ref; }
    EERef &operator=( uint8_t in )       { return eeprom_write_byte( (uint8_t*) index, in ), *this;  }
  b0:	c8 01       	movw	r24, r16
  b2:	dc d4       	rcall	.+2488   	; 0xa6c <eeprom_write_byte>
_ZN5EERef6updateEh():
C:\Users\wesley.furuya\AppData\Local\Arduino15\packages\ATTinyCore\hardware\avr\1.2.3\libraries\EEPROM/EEPROM.h:59 (discriminator 4)
    EERef &operator &=( uint8_t in )     { return *this = **this & in; }
    EERef &operator |=( uint8_t in )     { return *this = **this | in; }
    EERef &operator <<=( uint8_t in )    { return *this = **this << in; }
    EERef &operator >>=( uint8_t in )    { return *this = **this >> in; }
    
    EERef &update( uint8_t in )          { return  in != *this ? *this = in : *this; }
  b4:	c7 01       	movw	r24, r14
  b6:	0f 90       	pop	r0
  b8:	df 91       	pop	r29
  ba:	cf 91       	pop	r28
  bc:	1f 91       	pop	r17
  be:	0f 91       	pop	r16
  c0:	ff 90       	pop	r15
  c2:	ef 90       	pop	r14
  c4:	08 95       	ret

000000c6 <loop>:
loop():
C:\Users\wesley.furuya\Documents\GitHub\Qwiic_Joystick\Firmware\ATtiny85 Firmware\Qwiic_Joystick/Qwiic_Joystick.ino:178
  Serial.println();
  delay(200);
#endif

  //Sleep until interrupt
  set_sleep_mode(SLEEP_MODE_IDLE);
  c6:	85 b7       	in	r24, 0x35	; 53
  c8:	87 7e       	andi	r24, 0xE7	; 231
  ca:	85 bf       	out	0x35, r24	; 53
C:\Users\wesley.furuya\Documents\GitHub\Qwiic_Joystick\Firmware\ATtiny85 Firmware\Qwiic_Joystick/Qwiic_Joystick.ino:179
  sleep_mode(); //Stop everything and go to sleep. Wake up from Button interrupts.
  cc:	85 b7       	in	r24, 0x35	; 53
  ce:	80 62       	ori	r24, 0x20	; 32
  d0:	85 bf       	out	0x35, r24	; 53
  d2:	88 95       	sleep
  d4:	85 b7       	in	r24, 0x35	; 53
  d6:	8f 7d       	andi	r24, 0xDF	; 223
  d8:	85 bf       	out	0x35, r24	; 53
  da:	08 95       	ret

000000dc <readSystemSettings()>:
_Z18readSystemSettingsv():
C:\Users\wesley.furuya\Documents\GitHub\Qwiic_Joystick\Firmware\ATtiny85 Firmware\Qwiic_Joystick/Qwiic_Joystick.ino:213
}

//Reads the current system settings from EEPROM
//If anything looks weird, reset setting to default value
void readSystemSettings(void)
{
  dc:	cf 93       	push	r28
  de:	df 93       	push	r29
  e0:	00 d0       	rcall	.+0      	; 0xe2 <readSystemSettings()+0x6>
  e2:	cd b7       	in	r28, 0x3d	; 61
  e4:	de b7       	in	r29, 0x3e	; 62
_ZNK5EERefdeEv():
C:\Users\wesley.furuya\AppData\Local\Arduino15\packages\ATTinyCore\hardware\avr\1.2.3\libraries\EEPROM/EEPROM.h:42

    EERef( const int index )
        : index( index )                 {}
    
    //Access/read members.
    uint8_t operator*() const            { return eeprom_read_byte( (uint8_t*) index ); }
  e6:	80 e0       	ldi	r24, 0x00	; 0
  e8:	90 e0       	ldi	r25, 0x00	; 0
  ea:	b8 d4       	rcall	.+2416   	; 0xa5c <eeprom_read_byte>
_Z18readSystemSettingsv():
C:\Users\wesley.furuya\Documents\GitHub\Qwiic_Joystick\Firmware\ATtiny85 Firmware\Qwiic_Joystick/Qwiic_Joystick.ino:215
  //Read what I2C address we should use
  registerMap.i2cAddress = EEPROM.read(LOCATION_I2C_ADDRESS);
  ec:	80 93 79 00 	sts	0x0079, r24	; 0x800079 <registerMap+0xa>
C:\Users\wesley.furuya\Documents\GitHub\Qwiic_Joystick\Firmware\ATtiny85 Firmware\Qwiic_Joystick/Qwiic_Joystick.ino:216
  if (registerMap.i2cAddress == 0xFF) //Blank
  f0:	80 91 79 00 	lds	r24, 0x0079	; 0x800079 <registerMap+0xa>
  f4:	8f 3f       	cpi	r24, 0xFF	; 255
  f6:	51 f4       	brne	.+20     	; 0x10c <readSystemSettings()+0x30>
C:\Users\wesley.furuya\Documents\GitHub\Qwiic_Joystick\Firmware\ATtiny85 Firmware\Qwiic_Joystick/Qwiic_Joystick.ino:218
  {
    registerMap.i2cAddress = I2C_ADDRESS_DEFAULT; //By default, we listen for I2C_ADDRESS_DEFAULT
  f8:	80 e2       	ldi	r24, 0x20	; 32
  fa:	80 93 79 00 	sts	0x0079, r24	; 0x800079 <registerMap+0xa>
C:\Users\wesley.furuya\Documents\GitHub\Qwiic_Joystick\Firmware\ATtiny85 Firmware\Qwiic_Joystick/Qwiic_Joystick.ino:219
    EEPROM.update(LOCATION_I2C_ADDRESS, registerMap.i2cAddress);
  fe:	60 91 79 00 	lds	r22, 0x0079	; 0x800079 <registerMap+0xa>
EERef():
C:\Users\wesley.furuya\AppData\Local\Arduino15\packages\ATTinyCore\hardware\avr\1.2.3\libraries\EEPROM/EEPROM.h:39
***/

struct EERef{

    EERef( const int index )
        : index( index )                 {}
 102:	1a 82       	std	Y+2, r1	; 0x02
 104:	19 82       	std	Y+1, r1	; 0x01
_ZN11EEPROMClass6updateEih():
C:\Users\wesley.furuya\AppData\Local\Arduino15\packages\ATTinyCore\hardware\avr\1.2.3\libraries\EEPROM/EEPROM.h:122

    //Basic user access methods.
    EERef operator[]( const int idx )    { return idx; }
    uint8_t read( int idx )              { return EERef( idx ); }
    void write( int idx, uint8_t val )   { (EERef( idx )) = val; }
    void update( int idx, uint8_t val )  { EERef( idx ).update( val ); }
 106:	ce 01       	movw	r24, r28
 108:	01 96       	adiw	r24, 0x01	; 1
 10a:	bf df       	rcall	.-130    	; 0x8a <EERef::update(unsigned char)>
_Z18readSystemSettingsv():
C:\Users\wesley.furuya\Documents\GitHub\Qwiic_Joystick\Firmware\ATtiny85 Firmware\Qwiic_Joystick/Qwiic_Joystick.ino:223
  }

  //Error check I2C address we read from EEPROM
  if (registerMap.i2cAddress < 0x08 || registerMap.i2cAddress > 0x77)
 10c:	80 91 79 00 	lds	r24, 0x0079	; 0x800079 <registerMap+0xa>
 110:	88 30       	cpi	r24, 0x08	; 8
 112:	20 f0       	brcs	.+8      	; 0x11c <readSystemSettings()+0x40>
C:\Users\wesley.furuya\Documents\GitHub\Qwiic_Joystick\Firmware\ATtiny85 Firmware\Qwiic_Joystick/Qwiic_Joystick.ino:223 (discriminator 2)
 114:	80 91 79 00 	lds	r24, 0x0079	; 0x800079 <registerMap+0xa>
 118:	88 37       	cpi	r24, 0x78	; 120
 11a:	50 f0       	brcs	.+20     	; 0x130 <readSystemSettings()+0x54>
C:\Users\wesley.furuya\Documents\GitHub\Qwiic_Joystick\Firmware\ATtiny85 Firmware\Qwiic_Joystick/Qwiic_Joystick.ino:227
  {
    //User has set the address out of range
    //Go back to defaults
    registerMap.i2cAddress = I2C_ADDRESS_DEFAULT;
 11c:	80 e2       	ldi	r24, 0x20	; 32
 11e:	80 93 79 00 	sts	0x0079, r24	; 0x800079 <registerMap+0xa>
C:\Users\wesley.furuya\Documents\GitHub\Qwiic_Joystick\Firmware\ATtiny85 Firmware\Qwiic_Joystick/Qwiic_Joystick.ino:228
    EEPROM.update(LOCATION_I2C_ADDRESS, registerMap.i2cAddress);
 122:	60 91 79 00 	lds	r22, 0x0079	; 0x800079 <registerMap+0xa>
EERef():
C:\Users\wesley.furuya\AppData\Local\Arduino15\packages\ATTinyCore\hardware\avr\1.2.3\libraries\EEPROM/EEPROM.h:39
***/

struct EERef{

    EERef( const int index )
        : index( index )                 {}
 126:	1a 82       	std	Y+2, r1	; 0x02
 128:	19 82       	std	Y+1, r1	; 0x01
_ZN11EEPROMClass6updateEih():
C:\Users\wesley.furuya\AppData\Local\Arduino15\packages\ATTinyCore\hardware\avr\1.2.3\libraries\EEPROM/EEPROM.h:122

    //Basic user access methods.
    EERef operator[]( const int idx )    { return idx; }
    uint8_t read( int idx )              { return EERef( idx ); }
    void write( int idx, uint8_t val )   { (EERef( idx )) = val; }
    void update( int idx, uint8_t val )  { EERef( idx ).update( val ); }
 12a:	ce 01       	movw	r24, r28
 12c:	01 96       	adiw	r24, 0x01	; 1
 12e:	ad df       	rcall	.-166    	; 0x8a <EERef::update(unsigned char)>
_Z18readSystemSettingsv():
C:\Users\wesley.furuya\Documents\GitHub\Qwiic_Joystick\Firmware\ATtiny85 Firmware\Qwiic_Joystick/Qwiic_Joystick.ino:231
  }

}
 130:	0f 90       	pop	r0
 132:	0f 90       	pop	r0
 134:	df 91       	pop	r29
 136:	cf 91       	pop	r28
 138:	08 95       	ret

0000013a <startI2C()>:
_Z8startI2Cv():
C:\Users\wesley.furuya\Documents\GitHub\Qwiic_Joystick\Firmware\ATtiny85 Firmware\Qwiic_Joystick/Qwiic_Joystick.ino:236

//Begin listening on I2C bus as I2C slave using the global variable setting_i2c_address
void startI2C()
{
  Wire.end(); //Before we can change addresses we need to stop
 13a:	89 e8       	ldi	r24, 0x89	; 137
 13c:	90 e0       	ldi	r25, 0x00	; 0
 13e:	02 d1       	rcall	.+516    	; 0x344 <TwoWire::end()>
C:\Users\wesley.furuya\Documents\GitHub\Qwiic_Joystick\Firmware\ATtiny85 Firmware\Qwiic_Joystick/Qwiic_Joystick.ino:238

  Wire.begin(registerMap.i2cAddress); //Start I2C and answer calls using address from EEPROM
 140:	60 91 79 00 	lds	r22, 0x0079	; 0x800079 <registerMap+0xa>
 144:	89 e8       	ldi	r24, 0x89	; 137
 146:	90 e0       	ldi	r25, 0x00	; 0
 148:	fb d0       	rcall	.+502    	; 0x340 <TwoWire::begin(unsigned char)>
C:\Users\wesley.furuya\Documents\GitHub\Qwiic_Joystick\Firmware\ATtiny85 Firmware\Qwiic_Joystick/Qwiic_Joystick.ino:241

  //The connections to the interrupts are severed when a Wire.begin occurs. So re-declare them.
  Wire.onReceive(receiveEvent);
 14a:	6b ed       	ldi	r22, 0xDB	; 219
 14c:	70 e0       	ldi	r23, 0x00	; 0
 14e:	89 e8       	ldi	r24, 0x89	; 137
 150:	90 e0       	ldi	r25, 0x00	; 0
 152:	6a d1       	rcall	.+724    	; 0x428 <TwoWire::onReceive(void (*)(int))>
C:\Users\wesley.furuya\Documents\GitHub\Qwiic_Joystick\Firmware\ATtiny85 Firmware\Qwiic_Joystick/Qwiic_Joystick.ino:242
  Wire.onRequest(requestEvent);
 154:	6a e8       	ldi	r22, 0x8A	; 138
 156:	71 e0       	ldi	r23, 0x01	; 1
 158:	89 e8       	ldi	r24, 0x89	; 137
 15a:	90 e0       	ldi	r25, 0x00	; 0
 15c:	6a c1       	rjmp	.+724    	; 0x432 <TwoWire::onRequest(void (*)())>

0000015e <recordSystemSettings()>:
_Z20recordSystemSettingsv():
C:\Users\wesley.furuya\Documents\GitHub\Qwiic_Joystick\Firmware\ATtiny85 Firmware\Qwiic_Joystick/Qwiic_Joystick.ino:184
  sleep_mode(); //Stop everything and go to sleep. Wake up from Button interrupts.
}

//If the current setting is different from that in EEPROM, update EEPROM
void recordSystemSettings(void)
{
 15e:	cf 93       	push	r28
 160:	df 93       	push	r29
 162:	00 d0       	rcall	.+0      	; 0x164 <recordSystemSettings()+0x6>
 164:	cd b7       	in	r28, 0x3d	; 61
 166:	de b7       	in	r29, 0x3e	; 62
C:\Users\wesley.furuya\Documents\GitHub\Qwiic_Joystick\Firmware\ATtiny85 Firmware\Qwiic_Joystick/Qwiic_Joystick.ino:189
  //I2C address is byte
  byte i2cAddr;

  //Error check the current I2C address
  if (registerMap.i2cAddress < 0x08 || registerMap.i2cAddress > 0x77)
 168:	80 91 79 00 	lds	r24, 0x0079	; 0x800079 <registerMap+0xa>
 16c:	88 30       	cpi	r24, 0x08	; 8
 16e:	d0 f0       	brcs	.+52     	; 0x1a4 <recordSystemSettings()+0x46>
C:\Users\wesley.furuya\Documents\GitHub\Qwiic_Joystick\Firmware\ATtiny85 Firmware\Qwiic_Joystick/Qwiic_Joystick.ino:189 (discriminator 2)
 170:	80 91 79 00 	lds	r24, 0x0079	; 0x800079 <registerMap+0xa>
 174:	88 37       	cpi	r24, 0x78	; 120
 176:	b0 f4       	brcc	.+44     	; 0x1a4 <recordSystemSettings()+0x46>
_ZNK5EERefdeEv():
C:\Users\wesley.furuya\AppData\Local\Arduino15\packages\ATTinyCore\hardware\avr\1.2.3\libraries\EEPROM/EEPROM.h:42

    EERef( const int index )
        : index( index )                 {}
    
    //Access/read members.
    uint8_t operator*() const            { return eeprom_read_byte( (uint8_t*) index ); }
 178:	80 e0       	ldi	r24, 0x00	; 0
 17a:	90 e0       	ldi	r25, 0x00	; 0
 17c:	6f d4       	rcall	.+2270   	; 0xa5c <eeprom_read_byte>
_Z20recordSystemSettingsv():
C:\Users\wesley.furuya\Documents\GitHub\Qwiic_Joystick\Firmware\ATtiny85 Firmware\Qwiic_Joystick/Qwiic_Joystick.ino:198
    registerMap.i2cAddress = I2C_ADDRESS_DEFAULT;
  }

  //Read the value currently in EEPROM. If it's different from the memory map then record the memory map value to EEPROM.
  EEPROM.get(LOCATION_I2C_ADDRESS, i2cAddr);
  if (i2cAddr != registerMap.i2cAddress && registerMap.i2cLock == 0x13)
 17e:	90 91 79 00 	lds	r25, 0x0079	; 0x800079 <registerMap+0xa>
 182:	89 17       	cp	r24, r25
 184:	99 f0       	breq	.+38     	; 0x1ac <recordSystemSettings()+0x4e>
C:\Users\wesley.furuya\Documents\GitHub\Qwiic_Joystick\Firmware\ATtiny85 Firmware\Qwiic_Joystick/Qwiic_Joystick.ino:198 (discriminator 1)
 186:	80 91 78 00 	lds	r24, 0x0078	; 0x800078 <registerMap+0x9>
 18a:	83 31       	cpi	r24, 0x13	; 19
 18c:	79 f4       	brne	.+30     	; 0x1ac <recordSystemSettings()+0x4e>
C:\Users\wesley.furuya\Documents\GitHub\Qwiic_Joystick\Firmware\ATtiny85 Firmware\Qwiic_Joystick/Qwiic_Joystick.ino:201
  {    
    //Serial.print(registerMap.i2cLock, HEX);
    registerMap.i2cLock = 0x00;
 18e:	10 92 78 00 	sts	0x0078, r1	; 0x800078 <registerMap+0x9>
C:\Users\wesley.furuya\Documents\GitHub\Qwiic_Joystick\Firmware\ATtiny85 Firmware\Qwiic_Joystick/Qwiic_Joystick.ino:203
    //Serial.println(registerMap.i2cLock, HEX);
    EEPROM.update(LOCATION_I2C_ADDRESS, registerMap.i2cAddress);
 192:	60 91 79 00 	lds	r22, 0x0079	; 0x800079 <registerMap+0xa>
EERef():
C:\Users\wesley.furuya\AppData\Local\Arduino15\packages\ATTinyCore\hardware\avr\1.2.3\libraries\EEPROM/EEPROM.h:39
***/

struct EERef{

    EERef( const int index )
        : index( index )                 {}
 196:	1a 82       	std	Y+2, r1	; 0x02
 198:	19 82       	std	Y+1, r1	; 0x01
_ZN11EEPROMClass6updateEih():
C:\Users\wesley.furuya\AppData\Local\Arduino15\packages\ATTinyCore\hardware\avr\1.2.3\libraries\EEPROM/EEPROM.h:122

    //Basic user access methods.
    EERef operator[]( const int idx )    { return idx; }
    uint8_t read( int idx )              { return EERef( idx ); }
    void write( int idx, uint8_t val )   { (EERef( idx )) = val; }
    void update( int idx, uint8_t val )  { EERef( idx ).update( val ); }
 19a:	ce 01       	movw	r24, r28
 19c:	01 96       	adiw	r24, 0x01	; 1
 19e:	75 df       	rcall	.-278    	; 0x8a <EERef::update(unsigned char)>
_Z20recordSystemSettingsv():
C:\Users\wesley.furuya\Documents\GitHub\Qwiic_Joystick\Firmware\ATtiny85 Firmware\Qwiic_Joystick/Qwiic_Joystick.ino:204
    startI2C(); //Determine the I2C address we should be using and begin listening on I2C bus
 1a0:	cc df       	rcall	.-104    	; 0x13a <startI2C()>
 1a2:	04 c0       	rjmp	.+8      	; 0x1ac <recordSystemSettings()+0x4e>
C:\Users\wesley.furuya\Documents\GitHub\Qwiic_Joystick\Firmware\ATtiny85 Firmware\Qwiic_Joystick/Qwiic_Joystick.ino:193
  //Error check the current I2C address
  if (registerMap.i2cAddress < 0x08 || registerMap.i2cAddress > 0x77)
  {
    //User has set the address out of range
    //Go back to defaults
    registerMap.i2cAddress = I2C_ADDRESS_DEFAULT;
 1a4:	80 e2       	ldi	r24, 0x20	; 32
 1a6:	80 93 79 00 	sts	0x0079, r24	; 0x800079 <registerMap+0xa>
 1aa:	e6 cf       	rjmp	.-52     	; 0x178 <recordSystemSettings()+0x1a>
C:\Users\wesley.furuya\Documents\GitHub\Qwiic_Joystick\Firmware\ATtiny85 Firmware\Qwiic_Joystick/Qwiic_Joystick.ino:208
    EEPROM.update(LOCATION_I2C_ADDRESS, registerMap.i2cAddress);
    startI2C(); //Determine the I2C address we should be using and begin listening on I2C bus
    //Serial.print("New Address: 0x");
    //Serial.println(registerMap.i2cAddress, HEX);
  }
}
 1ac:	0f 90       	pop	r0
 1ae:	0f 90       	pop	r0
 1b0:	df 91       	pop	r29
 1b2:	cf 91       	pop	r28
 1b4:	08 95       	ret

000001b6 <receiveEvent(int)>:
_Z12receiveEventi():
C:\Users\wesley.furuya\Documents\GitHub\Qwiic_Joystick\Firmware\ATtiny85 Firmware\Qwiic_Joystick/interrupts.ino:64


//When Qwiic Joystick receives data bytes from Master, this function is called as an interrupt
//(Serves rewritable I2C address)
void receiveEvent(int numberOfBytesReceived)
{
 1b6:	ff 92       	push	r15
 1b8:	0f 93       	push	r16
 1ba:	1f 93       	push	r17
 1bc:	cf 93       	push	r28
 1be:	df 93       	push	r29
 1c0:	8c 01       	movw	r16, r24
C:\Users\wesley.furuya\Documents\GitHub\Qwiic_Joystick\Firmware\ATtiny85 Firmware\Qwiic_Joystick/interrupts.ino:65
  registerNumber = Wire.read(); //Get the memory map offset from the user
 1c2:	89 e8       	ldi	r24, 0x89	; 137
 1c4:	90 e0       	ldi	r25, 0x00	; 0
 1c6:	15 d1       	rcall	.+554    	; 0x3f2 <TwoWire::read()>
 1c8:	80 93 88 00 	sts	0x0088, r24	; 0x800088 <__data_end>
C:\Users\wesley.furuya\Documents\GitHub\Qwiic_Joystick\Firmware\ATtiny85 Firmware\Qwiic_Joystick/interrupts.ino:71

  

  //Begin recording the following incoming bytes to the temp memory map
  //starting at the registerNumber (the first byte received)
  for (byte x = 0 ; x < numberOfBytesReceived - 1 ; x++)
 1cc:	f1 2c       	mov	r15, r1
 1ce:	01 50       	subi	r16, 0x01	; 1
 1d0:	11 09       	sbc	r17, r1
C:\Users\wesley.furuya\Documents\GitHub\Qwiic_Joystick\Firmware\ATtiny85 Firmware\Qwiic_Joystick/interrupts.ino:71 (discriminator 1)
 1d2:	cf 2d       	mov	r28, r15
 1d4:	d0 e0       	ldi	r29, 0x00	; 0
 1d6:	c0 17       	cp	r28, r16
 1d8:	d1 07       	cpc	r29, r17
 1da:	0c f0       	brlt	.+2      	; 0x1de <receiveEvent(int)+0x28>
 1dc:	45 c0       	rjmp	.+138    	; 0x268 <__stack+0x9>
C:\Users\wesley.furuya\Documents\GitHub\Qwiic_Joystick\Firmware\ATtiny85 Firmware\Qwiic_Joystick/interrupts.ino:73
  {
    byte temp = Wire.read(); //We might record it, we might throw it away
 1de:	89 e8       	ldi	r24, 0x89	; 137
 1e0:	90 e0       	ldi	r25, 0x00	; 0
 1e2:	07 d1       	rcall	.+526    	; 0x3f2 <TwoWire::read()>
C:\Users\wesley.furuya\Documents\GitHub\Qwiic_Joystick\Firmware\ATtiny85 Firmware\Qwiic_Joystick/interrupts.ino:75

    if ( (x + registerNumber) < sizeof(memoryMap))
 1e4:	90 91 88 00 	lds	r25, 0x0088	; 0x800088 <__data_end>
 1e8:	9e 01       	movw	r18, r28
 1ea:	29 0f       	add	r18, r25
 1ec:	31 1d       	adc	r19, r1
 1ee:	2b 30       	cpi	r18, 0x0B	; 11
 1f0:	31 05       	cpc	r19, r1
 1f2:	c0 f5       	brcc	.+112    	; 0x264 <__stack+0x5>
C:\Users\wesley.furuya\Documents\GitHub\Qwiic_Joystick\Firmware\ATtiny85 Firmware\Qwiic_Joystick/interrupts.ino:79
    {
      //Clense the incoming byte against the read only protected bits
      //Store the result into the register map
      *(registerPointer + registerNumber + x) &= ~*(protectionPointer + registerNumber + x); //Clear this register if needed
 1f4:	90 91 88 00 	lds	r25, 0x0088	; 0x800088 <__data_end>
 1f8:	20 91 88 00 	lds	r18, 0x0088	; 0x800088 <__data_end>
 1fc:	ae 01       	movw	r20, r28
 1fe:	42 0f       	add	r20, r18
 200:	51 1d       	adc	r21, r1
 202:	e0 91 62 00 	lds	r30, 0x0062	; 0x800062 <registerPointer>
 206:	f0 91 63 00 	lds	r31, 0x0063	; 0x800063 <registerPointer+0x1>
 20a:	e4 0f       	add	r30, r20
 20c:	f5 1f       	adc	r31, r21
 20e:	a0 91 60 00 	lds	r26, 0x0060	; 0x800060 <__data_start>
 212:	b0 91 61 00 	lds	r27, 0x0061	; 0x800061 <__data_start+0x1>
 216:	ac 0f       	add	r26, r28
 218:	bd 1f       	adc	r27, r29
 21a:	a9 0f       	add	r26, r25
 21c:	b1 1d       	adc	r27, r1
 21e:	2c 91       	ld	r18, X
 220:	30 e0       	ldi	r19, 0x00	; 0
 222:	20 95       	com	r18
 224:	30 95       	com	r19
 226:	40 81       	ld	r20, Z
 228:	50 e0       	ldi	r21, 0x00	; 0
 22a:	24 23       	and	r18, r20
 22c:	35 23       	and	r19, r21
 22e:	20 83       	st	Z, r18
C:\Users\wesley.furuya\Documents\GitHub\Qwiic_Joystick\Firmware\ATtiny85 Firmware\Qwiic_Joystick/interrupts.ino:80
      *(registerPointer + registerNumber + x) |= temp & *(protectionPointer + registerNumber + x); //Or in the user's request (clensed against protection bits)
 230:	90 91 88 00 	lds	r25, 0x0088	; 0x800088 <__data_end>
 234:	20 91 88 00 	lds	r18, 0x0088	; 0x800088 <__data_end>
 238:	ae 01       	movw	r20, r28
 23a:	42 0f       	add	r20, r18
 23c:	51 1d       	adc	r21, r1
 23e:	e0 91 62 00 	lds	r30, 0x0062	; 0x800062 <registerPointer>
 242:	f0 91 63 00 	lds	r31, 0x0063	; 0x800063 <registerPointer+0x1>
 246:	e4 0f       	add	r30, r20
 248:	f5 1f       	adc	r31, r21
 24a:	20 91 60 00 	lds	r18, 0x0060	; 0x800060 <__data_start>
 24e:	30 91 61 00 	lds	r19, 0x0061	; 0x800061 <__data_start+0x1>
 252:	c2 0f       	add	r28, r18
 254:	d3 1f       	adc	r29, r19
 256:	c9 0f       	add	r28, r25
 258:	d1 1d       	adc	r29, r1
 25a:	98 81       	ld	r25, Y
 25c:	89 23       	and	r24, r25
 25e:	90 81       	ld	r25, Z
 260:	98 2b       	or	r25, r24
 262:	90 83       	st	Z, r25
C:\Users\wesley.furuya\Documents\GitHub\Qwiic_Joystick\Firmware\ATtiny85 Firmware\Qwiic_Joystick/interrupts.ino:71 (discriminator 2)

  

  //Begin recording the following incoming bytes to the temp memory map
  //starting at the registerNumber (the first byte received)
  for (byte x = 0 ; x < numberOfBytesReceived - 1 ; x++)
 264:	f3 94       	inc	r15
 266:	b5 cf       	rjmp	.-150    	; 0x1d2 <receiveEvent(int)+0x1c>
C:\Users\wesley.furuya\Documents\GitHub\Qwiic_Joystick\Firmware\ATtiny85 Firmware\Qwiic_Joystick/interrupts.ino:85
      *(registerPointer + registerNumber + x) |= temp & *(protectionPointer + registerNumber + x); //Or in the user's request (clensed against protection bits)
    }
  }

  recordSystemSettings();
}
 268:	df 91       	pop	r29
 26a:	cf 91       	pop	r28
 26c:	1f 91       	pop	r17
 26e:	0f 91       	pop	r16
 270:	ff 90       	pop	r15
C:\Users\wesley.furuya\Documents\GitHub\Qwiic_Joystick\Firmware\ATtiny85 Firmware\Qwiic_Joystick/interrupts.ino:84
      *(registerPointer + registerNumber + x) &= ~*(protectionPointer + registerNumber + x); //Clear this register if needed
      *(registerPointer + registerNumber + x) |= temp & *(protectionPointer + registerNumber + x); //Or in the user's request (clensed against protection bits)
    }
  }

  recordSystemSettings();
 272:	75 cf       	rjmp	.-278    	; 0x15e <recordSystemSettings()>

00000274 <setupInterrupts()>:
_Z15setupInterruptsv():
C:\Users\wesley.furuya\Documents\Arduino\libraries\PinChangeInterrupt-master\src/PinChangeInterrupt.h:434
		if (pcintNum == 0)
			callbackPCINT0 = userFunc;
#endif
#if (PCINT_USE_PCINT1 == true)
		if (pcintNum == 1)
			callbackPCINT1 = userFunc;
 274:	8d e3       	ldi	r24, 0x3D	; 61
 276:	90 e0       	ldi	r25, 0x00	; 0
 278:	90 93 85 00 	sts	0x0085, r25	; 0x800085 <callbackPCINT1+0x1>
 27c:	80 93 84 00 	sts	0x0084, r24	; 0x800084 <callbackPCINT1>
C:\Users\wesley.furuya\Documents\Arduino\libraries\PinChangeInterrupt-master\src/PinChangeInterrupt.h:600
	uint8_t pcintMask = (1 << pcintBit);
	uint8_t arrayPos = getArrayPosPCINT(pcintPort);

	// save settings related to mode and registers
	if (mode == CHANGE || mode == RISING)
		risingPorts[arrayPos] |= pcintMask;
 280:	80 91 97 00 	lds	r24, 0x0097	; 0x800097 <risingPorts>
 284:	82 60       	ori	r24, 0x02	; 2
 286:	80 93 97 00 	sts	0x0097, r24	; 0x800097 <risingPorts>
C:\Users\wesley.furuya\Documents\Arduino\libraries\PinChangeInterrupt-master\src/PinChangeInterrupt.h:602
	if (mode == CHANGE || mode == FALLING)
		fallingPorts[arrayPos] |= pcintMask;
 28a:	80 91 98 00 	lds	r24, 0x0098	; 0x800098 <fallingPorts>
 28e:	82 60       	ori	r24, 0x02	; 2
 290:	80 93 98 00 	sts	0x0098, r24	; 0x800098 <fallingPorts>
C:\Users\wesley.furuya\Documents\Arduino\libraries\PinChangeInterrupt-master\src/PinChangeInterrupt.h:605

	// call the actual hardware attach function
	enablePinChangeInterruptHelper(pcintPort, pcintMask, arrayPos);
 294:	40 e0       	ldi	r20, 0x00	; 0
 296:	62 e0       	ldi	r22, 0x02	; 2
 298:	80 e0       	ldi	r24, 0x00	; 0
 29a:	88 c2       	rjmp	.+1296   	; 0x7ac <enablePinChangeInterruptHelper(unsigned char, unsigned char, unsigned char)>

0000029c <setup>:
setup():
C:\Users\wesley.furuya\Documents\GitHub\Qwiic_Joystick\Firmware\ATtiny85 Firmware\Qwiic_Joystick/Qwiic_Joystick.ino:110


void setup(void)
{
  //Pin Definitions
  pinMode(Button_Pin, INPUT_PULLUP);
 29c:	62 e0       	ldi	r22, 0x02	; 2
 29e:	81 e0       	ldi	r24, 0x01	; 1
 2a0:	df d2       	rcall	.+1470   	; 0x860 <pinMode>
C:\Users\wesley.furuya\Documents\GitHub\Qwiic_Joystick\Firmware\ATtiny85 Firmware\Qwiic_Joystick/Qwiic_Joystick.ino:111
  pinMode(Vertical_Pin, INPUT); //No pull-up. External 10k
 2a2:	60 e0       	ldi	r22, 0x00	; 0
 2a4:	83 e0       	ldi	r24, 0x03	; 3
 2a6:	dc d2       	rcall	.+1464   	; 0x860 <pinMode>
C:\Users\wesley.furuya\Documents\GitHub\Qwiic_Joystick\Firmware\ATtiny85 Firmware\Qwiic_Joystick/Qwiic_Joystick.ino:112
  pinMode(Horizontal_Pin, INPUT); //No pull-up. External 10k
 2a8:	60 e0       	ldi	r22, 0x00	; 0
 2aa:	82 e0       	ldi	r24, 0x02	; 2
 2ac:	d9 d2       	rcall	.+1458   	; 0x860 <pinMode>
C:\Users\wesley.furuya\Documents\GitHub\Qwiic_Joystick\Firmware\ATtiny85 Firmware\Qwiic_Joystick/Qwiic_Joystick.ino:114

  readSystemSettings(); //Load all system settings from EEPROM
 2ae:	16 df       	rcall	.-468    	; 0xdc <readSystemSettings()>
C:\Users\wesley.furuya\Documents\GitHub\Qwiic_Joystick\Firmware\ATtiny85 Firmware\Qwiic_Joystick/Qwiic_Joystick.ino:115
  setupInterrupts(); //Enable pin change interrupts for I2C and button
 2b0:	e1 df       	rcall	.-62     	; 0x274 <setupInterrupts()>
C:\Users\wesley.furuya\Documents\GitHub\Qwiic_Joystick\Firmware\ATtiny85 Firmware\Qwiic_Joystick/Qwiic_Joystick.ino:116
  startI2C(); //Determine the I2C address we should be using and begin listening on I2C bus
 2b2:	43 cf       	rjmp	.-378    	; 0x13a <startI2C()>

000002b4 <updateJoystick()>:
_Z14updateJoystickv():
C:\Users\wesley.furuya\Documents\GitHub\Qwiic_Joystick\Firmware\ATtiny85 Firmware\Qwiic_Joystick/interrupts.ino:25
  }
}


//Called every time the joystick is moved
void updateJoystick() {
 2b4:	0f 93       	push	r16
 2b6:	1f 93       	push	r17
 2b8:	cf 93       	push	r28
 2ba:	df 93       	push	r29
 2bc:	00 d0       	rcall	.+0      	; 0x2be <updateJoystick()+0xa>
 2be:	00 d0       	rcall	.+0      	; 0x2c0 <updateJoystick()+0xc>
 2c0:	cd b7       	in	r28, 0x3d	; 61
 2c2:	de b7       	in	r29, 0x3e	; 62
C:\Users\wesley.furuya\Documents\GitHub\Qwiic_Joystick\Firmware\ATtiny85 Firmware\Qwiic_Joystick/interrupts.ino:27
  //Bring up ADC
  ADCSRA |= (1 << ADEN);
 2c4:	37 9a       	sbi	0x06, 7	; 6
C:\Users\wesley.furuya\Documents\GitHub\Qwiic_Joystick\Firmware\ATtiny85 Firmware\Qwiic_Joystick/interrupts.ino:29

  int X_Pot = analogRead(Horizontal_Pin);
 2c6:	82 e0       	ldi	r24, 0x02	; 2
 2c8:	89 d2       	rcall	.+1298   	; 0x7dc <analogRead>
 2ca:	8c 01       	movw	r16, r24
C:\Users\wesley.furuya\Documents\GitHub\Qwiic_Joystick\Firmware\ATtiny85 Firmware\Qwiic_Joystick/interrupts.ino:30
  int Y_Pot = analogRead(Vertical_Pin);
 2cc:	83 e0       	ldi	r24, 0x03	; 3
 2ce:	86 d2       	rcall	.+1292   	; 0x7dc <analogRead>
C:\Users\wesley.furuya\Documents\GitHub\Qwiic_Joystick\Firmware\ATtiny85 Firmware\Qwiic_Joystick/interrupts.ino:37
  //Convert int value to a 16-bit integer by bitshitting it left by 6.
  //Example-
  //DEC:           630
  //BIN:           1001110110
  //Bitshift by 6: 1001110110000000
  uint16_t X_unit16 = X_Pot<<6;
 2d0:	26 e0       	ldi	r18, 0x06	; 6
 2d2:	00 0f       	add	r16, r16
 2d4:	11 1f       	adc	r17, r17
 2d6:	2a 95       	dec	r18
 2d8:	e1 f7       	brne	.-8      	; 0x2d2 <updateJoystick()+0x1e>
 2da:	1c 83       	std	Y+4, r17	; 0x04
 2dc:	0b 83       	std	Y+3, r16	; 0x03
C:\Users\wesley.furuya\Documents\GitHub\Qwiic_Joystick\Firmware\ATtiny85 Firmware\Qwiic_Joystick/interrupts.ino:38
  uint16_t Y_unit16 = Y_Pot<<6;
 2de:	36 e0       	ldi	r19, 0x06	; 6
 2e0:	88 0f       	add	r24, r24
 2e2:	99 1f       	adc	r25, r25
 2e4:	3a 95       	dec	r19
 2e6:	e1 f7       	brne	.-8      	; 0x2e0 <updateJoystick()+0x2c>
 2e8:	9a 83       	std	Y+2, r25	; 0x02
 2ea:	89 83       	std	Y+1, r24	; 0x01
C:\Users\wesley.furuya\Documents\GitHub\Qwiic_Joystick\Firmware\ATtiny85 Firmware\Qwiic_Joystick/interrupts.ino:49
  //Split:          10011101 | 10000000

  byte * bytePointer;

  bytePointer = (byte*)&X_unit16;
  registerMap.X_MSB = bytePointer[1];
 2ec:	8c 81       	ldd	r24, Y+4	; 0x04
 2ee:	ef e6       	ldi	r30, 0x6F	; 111
 2f0:	f0 e0       	ldi	r31, 0x00	; 0
 2f2:	83 83       	std	Z+3, r24	; 0x03
C:\Users\wesley.furuya\Documents\GitHub\Qwiic_Joystick\Firmware\ATtiny85 Firmware\Qwiic_Joystick/interrupts.ino:50
  registerMap.X_LSB = bytePointer[0];
 2f4:	8b 81       	ldd	r24, Y+3	; 0x03
 2f6:	84 83       	std	Z+4, r24	; 0x04
C:\Users\wesley.furuya\Documents\GitHub\Qwiic_Joystick\Firmware\ATtiny85 Firmware\Qwiic_Joystick/interrupts.ino:53
  
  bytePointer = (byte*)&Y_unit16;
  registerMap.Y_MSB = bytePointer[1];
 2f8:	8a 81       	ldd	r24, Y+2	; 0x02
 2fa:	85 83       	std	Z+5, r24	; 0x05
C:\Users\wesley.furuya\Documents\GitHub\Qwiic_Joystick\Firmware\ATtiny85 Firmware\Qwiic_Joystick/interrupts.ino:54
  registerMap.Y_LSB = bytePointer[0];
 2fc:	89 81       	ldd	r24, Y+1	; 0x01
 2fe:	86 83       	std	Z+6, r24	; 0x06
C:\Users\wesley.furuya\Documents\GitHub\Qwiic_Joystick\Firmware\ATtiny85 Firmware\Qwiic_Joystick/interrupts.ino:57

  //Shut off ADC
  ADCSRA &= ~(1 << ADEN);
 300:	37 98       	cbi	0x06, 7	; 6
C:\Users\wesley.furuya\Documents\GitHub\Qwiic_Joystick\Firmware\ATtiny85 Firmware\Qwiic_Joystick/interrupts.ino:58
}
 302:	0f 90       	pop	r0
 304:	0f 90       	pop	r0
 306:	0f 90       	pop	r0
 308:	0f 90       	pop	r0
 30a:	df 91       	pop	r29
 30c:	cf 91       	pop	r28
 30e:	1f 91       	pop	r17
 310:	0f 91       	pop	r16
 312:	08 95       	ret

00000314 <requestEvent()>:
_Z12requestEventv():
C:\Users\wesley.furuya\Documents\GitHub\Qwiic_Joystick\Firmware\ATtiny85 Firmware\Qwiic_Joystick/interrupts.ino:94
//When Qwiic Joystick gets a request for data from the user, this function is called as an interrupt
//The interrupt will respond with bytes starting from the last byte the user sent to us
//While we are sending bytes we may have to do some calculations
void requestEvent()
{
  updateJoystick();
 314:	cf df       	rcall	.-98     	; 0x2b4 <updateJoystick()>
C:\Users\wesley.furuya\Documents\GitHub\Qwiic_Joystick\Firmware\ATtiny85 Firmware\Qwiic_Joystick/interrupts.ino:95
  registerMap.Button_State = digitalRead(Button_Pin);
 316:	81 e0       	ldi	r24, 0x01	; 1
 318:	f2 d2       	rcall	.+1508   	; 0x8fe <digitalRead>
 31a:	80 93 76 00 	sts	0x0076, r24	; 0x800076 <registerMap+0x7>
C:\Users\wesley.furuya\Documents\GitHub\Qwiic_Joystick\Firmware\ATtiny85 Firmware\Qwiic_Joystick/interrupts.ino:100

  //This will write the entire contents of the register map struct starting from
  //the register the user requested, and when it reaches the end the master
  //will read 0xFFs.
  Wire.write((registerPointer + registerNumber), sizeof(memoryMap) - registerNumber);
 31e:	90 91 88 00 	lds	r25, 0x0088	; 0x800088 <__data_end>
 322:	80 91 88 00 	lds	r24, 0x0088	; 0x800088 <__data_end>
 326:	4b e0       	ldi	r20, 0x0B	; 11
 328:	50 e0       	ldi	r21, 0x00	; 0
 32a:	49 1b       	sub	r20, r25
 32c:	51 09       	sbc	r21, r1
 32e:	60 91 62 00 	lds	r22, 0x0062	; 0x800062 <registerPointer>
 332:	70 91 63 00 	lds	r23, 0x0063	; 0x800063 <registerPointer+0x1>
 336:	68 0f       	add	r22, r24
 338:	71 1d       	adc	r23, r1
 33a:	89 e8       	ldi	r24, 0x89	; 137
 33c:	90 e0       	ldi	r25, 0x00	; 0
 33e:	2a c0       	rjmp	.+84     	; 0x394 <TwoWire::write(unsigned char const*, unsigned int)>

00000340 <TwoWire::begin(unsigned char)>:
_ZN7TwoWire5beginEh():
C:\Users\wesley.furuya\AppData\Local\Arduino15\packages\ATTinyCore\hardware\avr\1.2.3\libraries\Wire\src/Wire.cpp:585
  }

  return value;
}

void TwoWire::flush(void) {
 340:	86 2f       	mov	r24, r22
 342:	85 c0       	rjmp	.+266    	; 0x44e <USI_TWI_Slave_Initialise>

00000344 <TwoWire::end()>:
_ZN7TwoWire3endEv():
 344:	a2 c0       	rjmp	.+324    	; 0x48a <USI_TWI_Slave_Disable>

00000346 <TwoWire::write(unsigned char)>:
_ZN7TwoWire5writeEh():
 346:	cf 93       	push	r28
 348:	80 91 8a 00 	lds	r24, 0x008A	; 0x80008a <TwoWire::transmitting>
 34c:	88 23       	and	r24, r24
 34e:	c1 f0       	breq	.+48     	; 0x380 <TwoWire::write(unsigned char)+0x3a>
 350:	80 91 8b 00 	lds	r24, 0x008B	; 0x80008b <TwoWire::BufferLength>
 354:	80 32       	cpi	r24, 0x20	; 32
 356:	18 f0       	brcs	.+6      	; 0x35e <TwoWire::write(unsigned char)+0x18>
 358:	80 e0       	ldi	r24, 0x00	; 0
 35a:	90 e0       	ldi	r25, 0x00	; 0
 35c:	19 c0       	rjmp	.+50     	; 0x390 <TwoWire::write(unsigned char)+0x4a>
 35e:	80 91 8c 00 	lds	r24, 0x008C	; 0x80008c <TwoWire::BufferIndex>
 362:	e0 91 7a 00 	lds	r30, 0x007A	; 0x80007a <TwoWire::Buffer>
 366:	f0 91 7b 00 	lds	r31, 0x007B	; 0x80007b <TwoWire::Buffer+0x1>
 36a:	e8 0f       	add	r30, r24
 36c:	f1 1d       	adc	r31, r1
 36e:	60 83       	st	Z, r22
 370:	80 91 8c 00 	lds	r24, 0x008C	; 0x80008c <TwoWire::BufferIndex>
 374:	8f 5f       	subi	r24, 0xFF	; 255
 376:	80 93 8c 00 	sts	0x008C, r24	; 0x80008c <TwoWire::BufferIndex>
 37a:	80 93 8b 00 	sts	0x008B, r24	; 0x80008b <TwoWire::BufferLength>
 37e:	06 c0       	rjmp	.+12     	; 0x38c <TwoWire::write(unsigned char)+0x46>
 380:	c6 2f       	mov	r28, r22
 382:	b1 d0       	rcall	.+354    	; 0x4e6 <USI_TWI_Space_In_Transmission_Buffer>
 384:	88 23       	and	r24, r24
 386:	41 f3       	breq	.-48     	; 0x358 <TwoWire::write(unsigned char)+0x12>
 388:	8c 2f       	mov	r24, r28
 38a:	85 d0       	rcall	.+266    	; 0x496 <USI_TWI_Transmit_Byte>
 38c:	81 e0       	ldi	r24, 0x01	; 1
 38e:	90 e0       	ldi	r25, 0x00	; 0
 390:	cf 91       	pop	r28
 392:	08 95       	ret

00000394 <TwoWire::write(unsigned char const*, unsigned int)>:
_ZN7TwoWire5writeEPKhj():
 394:	cf 92       	push	r12
 396:	df 92       	push	r13
 398:	ef 92       	push	r14
 39a:	ff 92       	push	r15
 39c:	0f 93       	push	r16
 39e:	1f 93       	push	r17
 3a0:	cf 93       	push	r28
 3a2:	df 93       	push	r29
 3a4:	6c 01       	movw	r12, r24
 3a6:	eb 01       	movw	r28, r22
 3a8:	7b 01       	movw	r14, r22
 3aa:	e4 0e       	add	r14, r20
 3ac:	f5 1e       	adc	r15, r21
 3ae:	00 e0       	ldi	r16, 0x00	; 0
 3b0:	10 e0       	ldi	r17, 0x00	; 0
 3b2:	ce 15       	cp	r28, r14
 3b4:	df 05       	cpc	r29, r15
 3b6:	31 f0       	breq	.+12     	; 0x3c4 <TwoWire::write(unsigned char const*, unsigned int)+0x30>
 3b8:	69 91       	ld	r22, Y+
 3ba:	c6 01       	movw	r24, r12
 3bc:	c4 df       	rcall	.-120    	; 0x346 <TwoWire::write(unsigned char)>
 3be:	08 0f       	add	r16, r24
 3c0:	19 1f       	adc	r17, r25
 3c2:	f7 cf       	rjmp	.-18     	; 0x3b2 <TwoWire::write(unsigned char const*, unsigned int)+0x1e>
 3c4:	c8 01       	movw	r24, r16
 3c6:	df 91       	pop	r29
 3c8:	cf 91       	pop	r28
 3ca:	1f 91       	pop	r17
 3cc:	0f 91       	pop	r16
 3ce:	ff 90       	pop	r15
 3d0:	ef 90       	pop	r14
 3d2:	df 90       	pop	r13
 3d4:	cf 90       	pop	r12
 3d6:	08 95       	ret

000003d8 <TwoWire::available()>:
_ZN7TwoWire9availableEv():
 3d8:	80 91 8b 00 	lds	r24, 0x008B	; 0x80008b <TwoWire::BufferLength>
 3dc:	88 23       	and	r24, r24
 3de:	31 f0       	breq	.+12     	; 0x3ec <TwoWire::available()+0x14>
 3e0:	90 e0       	ldi	r25, 0x00	; 0
 3e2:	20 91 8c 00 	lds	r18, 0x008C	; 0x80008c <TwoWire::BufferIndex>
 3e6:	82 1b       	sub	r24, r18
 3e8:	91 09       	sbc	r25, r1
 3ea:	08 95       	ret
 3ec:	75 d0       	rcall	.+234    	; 0x4d8 <USI_TWI_Data_In_Receive_Buffer>
 3ee:	90 e0       	ldi	r25, 0x00	; 0
 3f0:	08 95       	ret

000003f2 <TwoWire::read()>:
_ZN7TwoWire4readEv():
 3f2:	f2 df       	rcall	.-28     	; 0x3d8 <TwoWire::available()>
 3f4:	89 2b       	or	r24, r25
 3f6:	a9 f0       	breq	.+42     	; 0x422 <__LOCK_REGION_LENGTH__+0x22>
 3f8:	80 91 8b 00 	lds	r24, 0x008B	; 0x80008b <TwoWire::BufferLength>
 3fc:	88 23       	and	r24, r24
 3fe:	71 f0       	breq	.+28     	; 0x41c <__LOCK_REGION_LENGTH__+0x1c>
 400:	20 91 8c 00 	lds	r18, 0x008C	; 0x80008c <TwoWire::BufferIndex>
 404:	e0 91 7a 00 	lds	r30, 0x007A	; 0x80007a <TwoWire::Buffer>
 408:	f0 91 7b 00 	lds	r31, 0x007B	; 0x80007b <TwoWire::Buffer+0x1>
 40c:	e2 0f       	add	r30, r18
 40e:	f1 1d       	adc	r31, r1
 410:	80 81       	ld	r24, Z
 412:	90 e0       	ldi	r25, 0x00	; 0
 414:	2f 5f       	subi	r18, 0xFF	; 255
 416:	20 93 8c 00 	sts	0x008C, r18	; 0x80008c <TwoWire::BufferIndex>
 41a:	08 95       	ret
 41c:	4c d0       	rcall	.+152    	; 0x4b6 <USI_TWI_Receive_Byte>
 41e:	90 e0       	ldi	r25, 0x00	; 0
 420:	08 95       	ret
 422:	8f ef       	ldi	r24, 0xFF	; 255
 424:	9f ef       	ldi	r25, 0xFF	; 255
 426:	08 95       	ret

00000428 <TwoWire::onReceive(void (*)(int))>:
_ZN7TwoWire9onReceiveEPFviE():
C:\Users\wesley.furuya\AppData\Local\Arduino15\packages\ATTinyCore\hardware\avr\1.2.3\libraries\Wire\src/Wire.cpp:591
  // XXX: to be implemented.
}

// sets function called on slave write
void TwoWire::onReceive( void (*function)(int) ) {
  USI_TWI_On_Slave_Receive = function;
 428:	70 93 8e 00 	sts	0x008E, r23	; 0x80008e <USI_TWI_On_Slave_Receive+0x1>
 42c:	60 93 8d 00 	sts	0x008D, r22	; 0x80008d <USI_TWI_On_Slave_Receive>
 430:	08 95       	ret

00000432 <TwoWire::onRequest(void (*)())>:
_ZN7TwoWire9onRequestEPFvvE():
C:\Users\wesley.furuya\AppData\Local\Arduino15\packages\ATTinyCore\hardware\avr\1.2.3\libraries\Wire\src/Wire.cpp:596
}

// sets function called on slave read
void TwoWire::onRequest( void (*function)(void) ) {
  USI_TWI_On_Slave_Transmit = function;
 432:	70 93 90 00 	sts	0x0090, r23	; 0x800090 <USI_TWI_On_Slave_Transmit+0x1>
 436:	60 93 8f 00 	sts	0x008F, r22	; 0x80008f <USI_TWI_On_Slave_Transmit>
 43a:	08 95       	ret

0000043c <Flush_TWI_Buffers>:
Flush_TWI_Buffers():
C:\Users\wesley.furuya\AppData\Local\Arduino15\packages\ATTinyCore\hardware\avr\1.2.3\libraries\Wire\src\USI_TWI_Slave/USI_TWI_Slave.c:153
// Check if there is an active data session.
unsigned char USI_TWI_Slave_Is_Active()
{
	// Active if Overflow Interrupt is enabled and no Stop Condition occurred
	return (USICR & (1 << USIOIE)) && ((USISR & (1 << USIPF)) == 0);
}
 43c:	10 92 93 00 	sts	0x0093, r1	; 0x800093 <TWI_RxTail>
 440:	10 92 94 00 	sts	0x0094, r1	; 0x800094 <TWI_RxHead>
 444:	10 92 91 00 	sts	0x0091, r1	; 0x800091 <TWI_TxTail>
 448:	10 92 92 00 	sts	0x0092, r1	; 0x800092 <TWI_TxHead>
 44c:	08 95       	ret

0000044e <USI_TWI_Slave_Initialise>:
USI_TWI_Slave_Initialise():
 44e:	cf 93       	push	r28
 450:	df 93       	push	r29
 452:	1f 92       	push	r1
 454:	cd b7       	in	r28, 0x3d	; 61
 456:	de b7       	in	r29, 0x3e	; 62
 458:	89 83       	std	Y+1, r24	; 0x01
 45a:	f0 df       	rcall	.-32     	; 0x43c <Flush_TWI_Buffers>
 45c:	89 81       	ldd	r24, Y+1	; 0x01
 45e:	80 93 96 00 	sts	0x0096, r24	; 0x800096 <TWI_slaveAddress>
 462:	10 92 90 00 	sts	0x0090, r1	; 0x800090 <USI_TWI_On_Slave_Transmit+0x1>
 466:	10 92 8f 00 	sts	0x008F, r1	; 0x80008f <USI_TWI_On_Slave_Transmit>
 46a:	10 92 8e 00 	sts	0x008E, r1	; 0x80008e <USI_TWI_On_Slave_Receive+0x1>
 46e:	10 92 8d 00 	sts	0x008D, r1	; 0x80008d <USI_TWI_On_Slave_Receive>
 472:	c2 9a       	sbi	0x18, 2	; 24
 474:	c0 9a       	sbi	0x18, 0	; 24
 476:	ba 9a       	sbi	0x17, 2	; 23
 478:	b8 98       	cbi	0x17, 0	; 23
 47a:	88 ea       	ldi	r24, 0xA8	; 168
 47c:	8d b9       	out	0x0d, r24	; 13
 47e:	80 ef       	ldi	r24, 0xF0	; 240
 480:	8e b9       	out	0x0e, r24	; 14
 482:	0f 90       	pop	r0
 484:	df 91       	pop	r29
 486:	cf 91       	pop	r28
 488:	08 95       	ret

0000048a <USI_TWI_Slave_Disable>:
USI_TWI_Slave_Disable():
 48a:	ba 98       	cbi	0x17, 2	; 23
 48c:	b8 98       	cbi	0x17, 0	; 23
 48e:	1d b8       	out	0x0d, r1	; 13
 490:	80 ef       	ldi	r24, 0xF0	; 240
 492:	8e b9       	out	0x0e, r24	; 14
 494:	08 95       	ret

00000496 <USI_TWI_Transmit_Byte>:
USI_TWI_Transmit_Byte():
 496:	90 91 92 00 	lds	r25, 0x0092	; 0x800092 <TWI_TxHead>
 49a:	9f 5f       	subi	r25, 0xFF	; 255
 49c:	9f 70       	andi	r25, 0x0F	; 15
 49e:	20 91 91 00 	lds	r18, 0x0091	; 0x800091 <TWI_TxTail>
 4a2:	92 17       	cp	r25, r18
 4a4:	e1 f3       	breq	.-8      	; 0x49e <USI_TWI_Transmit_Byte+0x8>
 4a6:	e9 2f       	mov	r30, r25
 4a8:	f0 e0       	ldi	r31, 0x00	; 0
 4aa:	ec 54       	subi	r30, 0x4C	; 76
 4ac:	ff 4f       	sbci	r31, 0xFF	; 255
 4ae:	80 83       	st	Z, r24
 4b0:	90 93 92 00 	sts	0x0092, r25	; 0x800092 <TWI_TxHead>
 4b4:	08 95       	ret

000004b6 <USI_TWI_Receive_Byte>:
USI_TWI_Receive_Byte():
 4b6:	80 91 93 00 	lds	r24, 0x0093	; 0x800093 <TWI_RxTail>
 4ba:	90 91 94 00 	lds	r25, 0x0094	; 0x800094 <TWI_RxHead>
 4be:	98 17       	cp	r25, r24
 4c0:	e1 f3       	breq	.-8      	; 0x4ba <USI_TWI_Receive_Byte+0x4>
 4c2:	e0 91 93 00 	lds	r30, 0x0093	; 0x800093 <TWI_RxTail>
 4c6:	ef 5f       	subi	r30, 0xFF	; 255
 4c8:	ef 70       	andi	r30, 0x0F	; 15
 4ca:	e0 93 93 00 	sts	0x0093, r30	; 0x800093 <TWI_RxTail>
 4ce:	f0 e0       	ldi	r31, 0x00	; 0
 4d0:	ec 55       	subi	r30, 0x5C	; 92
 4d2:	ff 4f       	sbci	r31, 0xFF	; 255
 4d4:	80 81       	ld	r24, Z
 4d6:	08 95       	ret

000004d8 <USI_TWI_Data_In_Receive_Buffer>:
USI_TWI_Data_In_Receive_Buffer():
 4d8:	90 91 93 00 	lds	r25, 0x0093	; 0x800093 <TWI_RxTail>
 4dc:	80 91 94 00 	lds	r24, 0x0094	; 0x800094 <TWI_RxHead>
 4e0:	89 1b       	sub	r24, r25
 4e2:	8f 70       	andi	r24, 0x0F	; 15
 4e4:	08 95       	ret

000004e6 <USI_TWI_Space_In_Transmission_Buffer>:
USI_TWI_Space_In_Transmission_Buffer():
 4e6:	90 91 92 00 	lds	r25, 0x0092	; 0x800092 <TWI_TxHead>
 4ea:	80 91 91 00 	lds	r24, 0x0091	; 0x800091 <TWI_TxTail>
 4ee:	9f 5f       	subi	r25, 0xFF	; 255
 4f0:	89 1b       	sub	r24, r25
 4f2:	8f 70       	andi	r24, 0x0F	; 15
 4f4:	08 95       	ret

000004f6 <__vector_13>:
__vector_13():
C:\Users\wesley.furuya\AppData\Local\Arduino15\packages\ATTinyCore\hardware\avr\1.2.3\libraries\Wire\src\USI_TWI_Slave/USI_TWI_Slave.c:165
ISR(USI_START_VECTOR)
#elif __ICCAVR__
#pragma vector = USI_START_VECTOR
__interrupt void USI_Start_Condition_ISR(void)
#endif
{
 4f6:	1f 92       	push	r1
 4f8:	0f 92       	push	r0
 4fa:	0f b6       	in	r0, 0x3f	; 63
 4fc:	0f 92       	push	r0
 4fe:	11 24       	eor	r1, r1
 500:	0f 93       	push	r16
 502:	1f 93       	push	r17
 504:	2f 93       	push	r18
 506:	3f 93       	push	r19
 508:	4f 93       	push	r20
 50a:	5f 93       	push	r21
 50c:	6f 93       	push	r22
 50e:	7f 93       	push	r23
 510:	8f 93       	push	r24
 512:	9f 93       	push	r25
 514:	af 93       	push	r26
 516:	bf 93       	push	r27
 518:	cf 93       	push	r28
 51a:	ef 93       	push	r30
 51c:	ff 93       	push	r31
C:\Users\wesley.furuya\AppData\Local\Arduino15\packages\ATTinyCore\hardware\avr\1.2.3\libraries\Wire\src\USI_TWI_Slave/USI_TWI_Slave.c:169
	unsigned char tmpPin; // Temporary variable for pin state
	unsigned char tmpRxHead; // Temporary variable to store volatile
	// call slave receive callback on repeated start
	if (USI_TWI_On_Slave_Receive) {
 51e:	00 91 8d 00 	lds	r16, 0x008D	; 0x80008d <USI_TWI_On_Slave_Receive>
 522:	10 91 8e 00 	lds	r17, 0x008E	; 0x80008e <USI_TWI_On_Slave_Receive+0x1>
 526:	01 15       	cp	r16, r1
 528:	11 05       	cpc	r17, r1
 52a:	61 f0       	breq	.+24     	; 0x544 <__vector_13+0x4e>
C:\Users\wesley.furuya\AppData\Local\Arduino15\packages\ATTinyCore\hardware\avr\1.2.3\libraries\Wire\src\USI_TWI_Slave/USI_TWI_Slave.c:170
		tmpRxHead = TWI_RxHead;
 52c:	c0 91 94 00 	lds	r28, 0x0094	; 0x800094 <TWI_RxHead>
C:\Users\wesley.furuya\AppData\Local\Arduino15\packages\ATTinyCore\hardware\avr\1.2.3\libraries\Wire\src\USI_TWI_Slave/USI_TWI_Slave.c:171
		if (TWI_RxTail != tmpRxHead) { // data in receive buffer
 530:	80 91 93 00 	lds	r24, 0x0093	; 0x800093 <TWI_RxTail>
 534:	8c 17       	cp	r24, r28
 536:	31 f0       	breq	.+12     	; 0x544 <__vector_13+0x4e>
C:\Users\wesley.furuya\AppData\Local\Arduino15\packages\ATTinyCore\hardware\avr\1.2.3\libraries\Wire\src\USI_TWI_Slave/USI_TWI_Slave.c:172
			USI_TWI_On_Slave_Receive(USI_TWI_Data_In_Receive_Buffer());
 538:	cf df       	rcall	.-98     	; 0x4d8 <USI_TWI_Data_In_Receive_Buffer>
 53a:	90 e0       	ldi	r25, 0x00	; 0
 53c:	f8 01       	movw	r30, r16
 53e:	09 95       	icall
C:\Users\wesley.furuya\AppData\Local\Arduino15\packages\ATTinyCore\hardware\avr\1.2.3\libraries\Wire\src\USI_TWI_Slave/USI_TWI_Slave.c:174
			// reset rx buffer
			TWI_RxTail = tmpRxHead;
 540:	c0 93 93 00 	sts	0x0093, r28	; 0x800093 <TWI_RxTail>
C:\Users\wesley.furuya\AppData\Local\Arduino15\packages\ATTinyCore\hardware\avr\1.2.3\libraries\Wire\src\USI_TWI_Slave/USI_TWI_Slave.c:178
		}
	}

	USI_TWI_Overflow_State = USI_SLAVE_CHECK_ADDRESS;
 544:	10 92 95 00 	sts	0x0095, r1	; 0x800095 <USI_TWI_Overflow_State>
C:\Users\wesley.furuya\AppData\Local\Arduino15\packages\ATTinyCore\hardware\avr\1.2.3\libraries\Wire\src\USI_TWI_Slave/USI_TWI_Slave.c:179
	DDR_USI &= ~(1 << PORT_USI_SDA); // Set SDA as input
 548:	b8 98       	cbi	0x17, 0	; 23
C:\Users\wesley.furuya\AppData\Local\Arduino15\packages\ATTinyCore\hardware\avr\1.2.3\libraries\Wire\src\USI_TWI_Slave/USI_TWI_Slave.c:180 (discriminator 2)
	while ((tmpPin = (PIN_USI_CL & (1 << PORT_USI_SCL))) && ((PIN_USI & (1 << PIN_USI_SDA)) == 0))
 54a:	b2 9b       	sbis	0x16, 2	; 22
 54c:	04 c0       	rjmp	.+8      	; 0x556 <__vector_13+0x60>
C:\Users\wesley.furuya\AppData\Local\Arduino15\packages\ATTinyCore\hardware\avr\1.2.3\libraries\Wire\src\USI_TWI_Slave/USI_TWI_Slave.c:180 (discriminator 1)
 54e:	b0 9b       	sbis	0x16, 0	; 22
 550:	fc cf       	rjmp	.-8      	; 0x54a <__vector_13+0x54>
C:\Users\wesley.furuya\AppData\Local\Arduino15\packages\ATTinyCore\hardware\avr\1.2.3\libraries\Wire\src\USI_TWI_Slave/USI_TWI_Slave.c:185
		; // Wait for SCL to go low to ensure the "Start Condition" has completed.
	      // If a Stop condition arises then leave the interrupt to prevent waiting forever.
	if (tmpPin) {
		// Stop Condition (waiting for next Start Condition)
		USICR = (1 << USISIE) | (0 << USIOIE) | // Enable Start Condition Interrupt. Disable Overflow Interrupt.
 552:	88 ea       	ldi	r24, 0xA8	; 168
 554:	01 c0       	rjmp	.+2      	; 0x558 <__vector_13+0x62>
C:\Users\wesley.furuya\AppData\Local\Arduino15\packages\ATTinyCore\hardware\avr\1.2.3\libraries\Wire\src\USI_TWI_Slave/USI_TWI_Slave.c:192
		                                        // to first Start Condition (potentail failure)
		        (1 << USICS1) | (0 << USICS0) | (0 << USICLK) | // Shift Register Clock Source = External, positive edge
		        (0 << USITC);
	} else {
		// really Start Condition (Enable Overflow Interrupt)
		USICR = (1 << USISIE) | (1 << USIOIE)
 556:	88 ef       	ldi	r24, 0xF8	; 248
 558:	8d b9       	out	0x0d, r24	; 13
C:\Users\wesley.furuya\AppData\Local\Arduino15\packages\ATTinyCore\hardware\avr\1.2.3\libraries\Wire\src\USI_TWI_Slave/USI_TWI_Slave.c:198
		        | // Enable Overflow and Start Condition Interrupt. (Keep StartCondInt to detect RESTART)
		        (1 << USIWM1) | (1 << USIWM0) |                 // Set USI in Two-wire mode.
		        (1 << USICS1) | (0 << USICS0) | (0 << USICLK) | // Shift Register Clock Source = External, positive edge
		        (0 << USITC);
	}
	USISR = (1 << USI_START_COND_INT) | (1 << USIOIF) | (1 << USIPF) | (1 << USIDC) | // Clear flags
 55a:	80 ef       	ldi	r24, 0xF0	; 240
 55c:	8e b9       	out	0x0e, r24	; 14
C:\Users\wesley.furuya\AppData\Local\Arduino15\packages\ATTinyCore\hardware\avr\1.2.3\libraries\Wire\src\USI_TWI_Slave/USI_TWI_Slave.c:200
	        (0x0 << USICNT0); // Set USI to sample 8 bits i.e. count 16 external pin toggles.
}
 55e:	ff 91       	pop	r31
 560:	ef 91       	pop	r30
 562:	cf 91       	pop	r28
 564:	bf 91       	pop	r27
 566:	af 91       	pop	r26
 568:	9f 91       	pop	r25
 56a:	8f 91       	pop	r24
 56c:	7f 91       	pop	r23
 56e:	6f 91       	pop	r22
 570:	5f 91       	pop	r21
 572:	4f 91       	pop	r20
 574:	3f 91       	pop	r19
 576:	2f 91       	pop	r18
 578:	1f 91       	pop	r17
 57a:	0f 91       	pop	r16
 57c:	0f 90       	pop	r0
 57e:	0f be       	out	0x3f, r0	; 63
 580:	0f 90       	pop	r0
 582:	1f 90       	pop	r1
 584:	18 95       	reti

00000586 <__vector_14>:
__vector_14():
C:\Users\wesley.furuya\AppData\Local\Arduino15\packages\ATTinyCore\hardware\avr\1.2.3\libraries\Wire\src\USI_TWI_Slave/USI_TWI_Slave.c:212
ISR(USI_OVERFLOW_VECTOR)
#elif __ICCAVR__
#pragma vector = USI_OVERFLOW_VECTOR
__interrupt void USI_Counter_Overflow_ISR(void)
#endif
{
 586:	1f 92       	push	r1
 588:	0f 92       	push	r0
 58a:	0f b6       	in	r0, 0x3f	; 63
 58c:	0f 92       	push	r0
 58e:	11 24       	eor	r1, r1
 590:	0f 93       	push	r16
 592:	1f 93       	push	r17
 594:	2f 93       	push	r18
 596:	3f 93       	push	r19
 598:	4f 93       	push	r20
 59a:	5f 93       	push	r21
 59c:	6f 93       	push	r22
 59e:	7f 93       	push	r23
 5a0:	8f 93       	push	r24
 5a2:	9f 93       	push	r25
 5a4:	af 93       	push	r26
 5a6:	bf 93       	push	r27
 5a8:	cf 93       	push	r28
 5aa:	ef 93       	push	r30
 5ac:	ff 93       	push	r31
C:\Users\wesley.furuya\AppData\Local\Arduino15\packages\ATTinyCore\hardware\avr\1.2.3\libraries\Wire\src\USI_TWI_Slave/USI_TWI_Slave.c:217
	unsigned char tmpRxHead;
	unsigned char tmpTxTail; // Temporary variables to store volatiles
	unsigned char tmpUSIDR;

	switch (USI_TWI_Overflow_State) {
 5ae:	80 91 95 00 	lds	r24, 0x0095	; 0x800095 <USI_TWI_Overflow_State>
 5b2:	82 30       	cpi	r24, 0x02	; 2
 5b4:	09 f4       	brne	.+2      	; 0x5b8 <__vector_14+0x32>
 5b6:	4c c0       	rjmp	.+152    	; 0x650 <__vector_14+0xca>
 5b8:	28 f4       	brcc	.+10     	; 0x5c4 <__vector_14+0x3e>
 5ba:	88 23       	and	r24, r24
 5bc:	59 f0       	breq	.+22     	; 0x5d4 <__vector_14+0x4e>
 5be:	81 30       	cpi	r24, 0x01	; 1
 5c0:	51 f1       	breq	.+84     	; 0x616 <__vector_14+0x90>
 5c2:	83 c0       	rjmp	.+262    	; 0x6ca <__vector_14+0x144>
 5c4:	84 30       	cpi	r24, 0x04	; 4
 5c6:	09 f4       	brne	.+2      	; 0x5ca <__vector_14+0x44>
 5c8:	49 c0       	rjmp	.+146    	; 0x65c <__vector_14+0xd6>
 5ca:	10 f1       	brcs	.+68     	; 0x610 <__vector_14+0x8a>
 5cc:	85 30       	cpi	r24, 0x05	; 5
 5ce:	09 f4       	brne	.+2      	; 0x5d2 <__vector_14+0x4c>
 5d0:	64 c0       	rjmp	.+200    	; 0x69a <__vector_14+0x114>
 5d2:	7b c0       	rjmp	.+246    	; 0x6ca <__vector_14+0x144>
C:\Users\wesley.furuya\AppData\Local\Arduino15\packages\ATTinyCore\hardware\avr\1.2.3\libraries\Wire\src\USI_TWI_Slave/USI_TWI_Slave.c:221
	// ---------- Address mode ----------
	// Check address and send ACK (and next USI_SLAVE_SEND_DATA) if OK, else reset USI.
	case USI_SLAVE_CHECK_ADDRESS:
		if ((USIDR == 0) || ((USIDR >> 1) == TWI_slaveAddress)) {
 5d4:	8f b1       	in	r24, 0x0f	; 15
 5d6:	88 23       	and	r24, r24
 5d8:	31 f0       	breq	.+12     	; 0x5e6 <__vector_14+0x60>
C:\Users\wesley.furuya\AppData\Local\Arduino15\packages\ATTinyCore\hardware\avr\1.2.3\libraries\Wire\src\USI_TWI_Slave/USI_TWI_Slave.c:221 (discriminator 1)
 5da:	8f b1       	in	r24, 0x0f	; 15
 5dc:	86 95       	lsr	r24
 5de:	90 91 96 00 	lds	r25, 0x0096	; 0x800096 <TWI_slaveAddress>
 5e2:	89 13       	cpse	r24, r25
 5e4:	30 c0       	rjmp	.+96     	; 0x646 <__vector_14+0xc0>
C:\Users\wesley.furuya\AppData\Local\Arduino15\packages\ATTinyCore\hardware\avr\1.2.3\libraries\Wire\src\USI_TWI_Slave/USI_TWI_Slave.c:222
			if (USIDR & 0x01) {
 5e6:	78 9b       	sbis	0x0f, 0	; 15
 5e8:	0d c0       	rjmp	.+26     	; 0x604 <__vector_14+0x7e>
C:\Users\wesley.furuya\AppData\Local\Arduino15\packages\ATTinyCore\hardware\avr\1.2.3\libraries\Wire\src\USI_TWI_Slave/USI_TWI_Slave.c:223
				if (USI_TWI_On_Slave_Transmit) {
 5ea:	e0 91 8f 00 	lds	r30, 0x008F	; 0x80008f <USI_TWI_On_Slave_Transmit>
 5ee:	f0 91 90 00 	lds	r31, 0x0090	; 0x800090 <USI_TWI_On_Slave_Transmit+0x1>
 5f2:	30 97       	sbiw	r30, 0x00	; 0
 5f4:	29 f0       	breq	.+10     	; 0x600 <__vector_14+0x7a>
C:\Users\wesley.furuya\AppData\Local\Arduino15\packages\ATTinyCore\hardware\avr\1.2.3\libraries\Wire\src\USI_TWI_Slave/USI_TWI_Slave.c:225
					// reset tx buffer and call callback
					tmpTxTail = TWI_TxHead;
 5f6:	80 91 92 00 	lds	r24, 0x0092	; 0x800092 <TWI_TxHead>
C:\Users\wesley.furuya\AppData\Local\Arduino15\packages\ATTinyCore\hardware\avr\1.2.3\libraries\Wire\src\USI_TWI_Slave/USI_TWI_Slave.c:226
					TWI_TxTail = tmpTxTail;
 5fa:	80 93 91 00 	sts	0x0091, r24	; 0x800091 <TWI_TxTail>
C:\Users\wesley.furuya\AppData\Local\Arduino15\packages\ATTinyCore\hardware\avr\1.2.3\libraries\Wire\src\USI_TWI_Slave/USI_TWI_Slave.c:227
					USI_TWI_On_Slave_Transmit();
 5fe:	09 95       	icall
C:\Users\wesley.furuya\AppData\Local\Arduino15\packages\ATTinyCore\hardware\avr\1.2.3\libraries\Wire\src\USI_TWI_Slave/USI_TWI_Slave.c:229
				}
				USI_TWI_Overflow_State = USI_SLAVE_SEND_DATA;
 600:	81 e0       	ldi	r24, 0x01	; 1
 602:	01 c0       	rjmp	.+2      	; 0x606 <__vector_14+0x80>
C:\Users\wesley.furuya\AppData\Local\Arduino15\packages\ATTinyCore\hardware\avr\1.2.3\libraries\Wire\src\USI_TWI_Slave/USI_TWI_Slave.c:231
			} else {
				USI_TWI_Overflow_State = USI_SLAVE_REQUEST_DATA;
 604:	84 e0       	ldi	r24, 0x04	; 4
 606:	80 93 95 00 	sts	0x0095, r24	; 0x800095 <USI_TWI_Overflow_State>
C:\Users\wesley.furuya\AppData\Local\Arduino15\packages\ATTinyCore\hardware\avr\1.2.3\libraries\Wire\src\USI_TWI_Slave/USI_TWI_Slave.c:233
			}
			SET_USI_TO_SEND_ACK();
 60a:	1f b8       	out	0x0f, r1	; 15
 60c:	b8 9a       	sbi	0x17, 0	; 23
 60e:	5b c0       	rjmp	.+182    	; 0x6c6 <__vector_14+0x140>
C:\Users\wesley.furuya\AppData\Local\Arduino15\packages\ATTinyCore\hardware\avr\1.2.3\libraries\Wire\src\USI_TWI_Slave/USI_TWI_Slave.c:242
		break;

	// ----- Master write data mode ------
	// Check reply and goto USI_SLAVE_SEND_DATA if OK, else reset USI.
	case USI_SLAVE_CHECK_REPLY_FROM_SEND_DATA:
		if (USIDR) // If NACK, the master does not want more data.
 610:	8f b1       	in	r24, 0x0f	; 15
 612:	81 11       	cpse	r24, r1
 614:	18 c0       	rjmp	.+48     	; 0x646 <__vector_14+0xc0>
C:\Users\wesley.furuya\AppData\Local\Arduino15\packages\ATTinyCore\hardware\avr\1.2.3\libraries\Wire\src\USI_TWI_Slave/USI_TWI_Slave.c:253

	// Copy data from buffer to USIDR and set USI to shift byte. Next USI_SLAVE_REQUEST_REPLY_FROM_SEND_DATA
	case USI_SLAVE_SEND_DATA:

		// Get data from Buffer
		tmpTxTail = TWI_TxTail; // Not necessary, but prevents warnings
 616:	80 91 91 00 	lds	r24, 0x0091	; 0x800091 <TWI_TxTail>
C:\Users\wesley.furuya\AppData\Local\Arduino15\packages\ATTinyCore\hardware\avr\1.2.3\libraries\Wire\src\USI_TWI_Slave/USI_TWI_Slave.c:254
		if (TWI_TxHead != tmpTxTail) {
 61a:	90 91 92 00 	lds	r25, 0x0092	; 0x800092 <TWI_TxHead>
 61e:	98 17       	cp	r25, r24
 620:	91 f0       	breq	.+36     	; 0x646 <__vector_14+0xc0>
C:\Users\wesley.furuya\AppData\Local\Arduino15\packages\ATTinyCore\hardware\avr\1.2.3\libraries\Wire\src\USI_TWI_Slave/USI_TWI_Slave.c:255
			TWI_TxTail = (TWI_TxTail + 1) & TWI_TX_BUFFER_MASK;
 622:	80 91 91 00 	lds	r24, 0x0091	; 0x800091 <TWI_TxTail>
 626:	8f 5f       	subi	r24, 0xFF	; 255
 628:	8f 70       	andi	r24, 0x0F	; 15
 62a:	80 93 91 00 	sts	0x0091, r24	; 0x800091 <TWI_TxTail>
C:\Users\wesley.furuya\AppData\Local\Arduino15\packages\ATTinyCore\hardware\avr\1.2.3\libraries\Wire\src\USI_TWI_Slave/USI_TWI_Slave.c:256
			USIDR      = TWI_TxBuf[TWI_TxTail];
 62e:	e0 91 91 00 	lds	r30, 0x0091	; 0x800091 <TWI_TxTail>
 632:	f0 e0       	ldi	r31, 0x00	; 0
 634:	ec 54       	subi	r30, 0x4C	; 76
 636:	ff 4f       	sbci	r31, 0xFF	; 255
 638:	80 81       	ld	r24, Z
 63a:	8f b9       	out	0x0f, r24	; 15
C:\Users\wesley.furuya\AppData\Local\Arduino15\packages\ATTinyCore\hardware\avr\1.2.3\libraries\Wire\src\USI_TWI_Slave/USI_TWI_Slave.c:262
		} else // If the buffer is empty then:
		{
			SET_USI_TO_TWI_START_CONDITION_MODE();
			return;
		}
		USI_TWI_Overflow_State = USI_SLAVE_REQUEST_REPLY_FROM_SEND_DATA;
 63c:	82 e0       	ldi	r24, 0x02	; 2
 63e:	80 93 95 00 	sts	0x0095, r24	; 0x800095 <USI_TWI_Overflow_State>
C:\Users\wesley.furuya\AppData\Local\Arduino15\packages\ATTinyCore\hardware\avr\1.2.3\libraries\Wire\src\USI_TWI_Slave/USI_TWI_Slave.c:263
		SET_USI_TO_SEND_DATA();
 642:	b8 9a       	sbi	0x17, 0	; 23
 644:	03 c0       	rjmp	.+6      	; 0x64c <__vector_14+0xc6>
C:\Users\wesley.furuya\AppData\Local\Arduino15\packages\ATTinyCore\hardware\avr\1.2.3\libraries\Wire\src\USI_TWI_Slave/USI_TWI_Slave.c:259
		if (TWI_TxHead != tmpTxTail) {
			TWI_TxTail = (TWI_TxTail + 1) & TWI_TX_BUFFER_MASK;
			USIDR      = TWI_TxBuf[TWI_TxTail];
		} else // If the buffer is empty then:
		{
			SET_USI_TO_TWI_START_CONDITION_MODE();
 646:	b8 98       	cbi	0x17, 0	; 23
 648:	88 ea       	ldi	r24, 0xA8	; 168
 64a:	8d b9       	out	0x0d, r24	; 13
 64c:	80 e7       	ldi	r24, 0x70	; 112
 64e:	3c c0       	rjmp	.+120    	; 0x6c8 <__vector_14+0x142>
C:\Users\wesley.furuya\AppData\Local\Arduino15\packages\ATTinyCore\hardware\avr\1.2.3\libraries\Wire\src\USI_TWI_Slave/USI_TWI_Slave.c:268
		SET_USI_TO_SEND_DATA();
		break;

	// Set USI to sample reply from master. Next USI_SLAVE_CHECK_REPLY_FROM_SEND_DATA
	case USI_SLAVE_REQUEST_REPLY_FROM_SEND_DATA:
		USI_TWI_Overflow_State = USI_SLAVE_CHECK_REPLY_FROM_SEND_DATA;
 650:	83 e0       	ldi	r24, 0x03	; 3
 652:	80 93 95 00 	sts	0x0095, r24	; 0x800095 <USI_TWI_Overflow_State>
C:\Users\wesley.furuya\AppData\Local\Arduino15\packages\ATTinyCore\hardware\avr\1.2.3\libraries\Wire\src\USI_TWI_Slave/USI_TWI_Slave.c:269
		SET_USI_TO_READ_ACK();
 656:	b8 98       	cbi	0x17, 0	; 23
 658:	1f b8       	out	0x0f, r1	; 15
 65a:	35 c0       	rjmp	.+106    	; 0x6c6 <__vector_14+0x140>
C:\Users\wesley.furuya\AppData\Local\Arduino15\packages\ATTinyCore\hardware\avr\1.2.3\libraries\Wire\src\USI_TWI_Slave/USI_TWI_Slave.c:275
		break;

	// ----- Master read data mode ------
	// Set USI to sample data from master. Next USI_SLAVE_GET_DATA_AND_SEND_ACK.
	case USI_SLAVE_REQUEST_DATA:
		USI_TWI_Overflow_State = USI_SLAVE_GET_DATA_AND_SEND_ACK;
 65c:	85 e0       	ldi	r24, 0x05	; 5
 65e:	80 93 95 00 	sts	0x0095, r24	; 0x800095 <USI_TWI_Overflow_State>
C:\Users\wesley.furuya\AppData\Local\Arduino15\packages\ATTinyCore\hardware\avr\1.2.3\libraries\Wire\src\USI_TWI_Slave/USI_TWI_Slave.c:276
		SET_USI_TO_READ_DATA();
 662:	b8 98       	cbi	0x17, 0	; 23
 664:	80 e7       	ldi	r24, 0x70	; 112
 666:	8e b9       	out	0x0e, r24	; 14
C:\Users\wesley.furuya\AppData\Local\Arduino15\packages\ATTinyCore\hardware\avr\1.2.3\libraries\Wire\src\USI_TWI_Slave/USI_TWI_Slave.c:278
		// call slave receive callback on stop condition
		if (USI_TWI_On_Slave_Receive) {
 668:	00 91 8d 00 	lds	r16, 0x008D	; 0x80008d <USI_TWI_On_Slave_Receive>
 66c:	10 91 8e 00 	lds	r17, 0x008E	; 0x80008e <USI_TWI_On_Slave_Receive+0x1>
 670:	01 15       	cp	r16, r1
 672:	11 05       	cpc	r17, r1
 674:	51 f1       	breq	.+84     	; 0x6ca <__vector_14+0x144>
C:\Users\wesley.furuya\AppData\Local\Arduino15\packages\ATTinyCore\hardware\avr\1.2.3\libraries\Wire\src\USI_TWI_Slave/USI_TWI_Slave.c:279
			tmpRxHead = TWI_RxHead;
 676:	c0 91 94 00 	lds	r28, 0x0094	; 0x800094 <TWI_RxHead>
C:\Users\wesley.furuya\AppData\Local\Arduino15\packages\ATTinyCore\hardware\avr\1.2.3\libraries\Wire\src\USI_TWI_Slave/USI_TWI_Slave.c:280
			if (TWI_RxTail != tmpRxHead) { // data in receive buffer
 67a:	80 91 93 00 	lds	r24, 0x0093	; 0x800093 <TWI_RxTail>
 67e:	8c 17       	cp	r24, r28
 680:	21 f1       	breq	.+72     	; 0x6ca <__vector_14+0x144>
C:\Users\wesley.furuya\AppData\Local\Arduino15\packages\ATTinyCore\hardware\avr\1.2.3\libraries\Wire\src\USI_TWI_Slave/USI_TWI_Slave.c:282 (discriminator 1)
				// check for stop Condition
				while ((USISR & ((1 << USI_START_COND_INT) | (1 << USIPF) | (0xE << USICNT0))) == 0)
 682:	8e b1       	in	r24, 0x0e	; 14
 684:	8e 7a       	andi	r24, 0xAE	; 174
 686:	e9 f3       	breq	.-6      	; 0x682 <__vector_14+0xfc>
C:\Users\wesley.furuya\AppData\Local\Arduino15\packages\ATTinyCore\hardware\avr\1.2.3\libraries\Wire\src\USI_TWI_Slave/USI_TWI_Slave.c:285
					;// wait for either Start or Stop Condition
					// cancel after one SCL cycle
				if (USISR & (1 << USIPF)) { // Stop Condition
 688:	75 9b       	sbis	0x0e, 5	; 14
 68a:	1f c0       	rjmp	.+62     	; 0x6ca <__vector_14+0x144>
C:\Users\wesley.furuya\AppData\Local\Arduino15\packages\ATTinyCore\hardware\avr\1.2.3\libraries\Wire\src\USI_TWI_Slave/USI_TWI_Slave.c:286
					USI_TWI_On_Slave_Receive(USI_TWI_Data_In_Receive_Buffer());
 68c:	25 df       	rcall	.-438    	; 0x4d8 <USI_TWI_Data_In_Receive_Buffer>
 68e:	90 e0       	ldi	r25, 0x00	; 0
 690:	f8 01       	movw	r30, r16
 692:	09 95       	icall
C:\Users\wesley.furuya\AppData\Local\Arduino15\packages\ATTinyCore\hardware\avr\1.2.3\libraries\Wire\src\USI_TWI_Slave/USI_TWI_Slave.c:288
					// reset rx buffer
					TWI_RxTail = tmpRxHead;
 694:	c0 93 93 00 	sts	0x0093, r28	; 0x800093 <TWI_RxTail>
 698:	18 c0       	rjmp	.+48     	; 0x6ca <__vector_14+0x144>
C:\Users\wesley.furuya\AppData\Local\Arduino15\packages\ATTinyCore\hardware\avr\1.2.3\libraries\Wire\src\USI_TWI_Slave/USI_TWI_Slave.c:297
		break;

	// Copy data from USIDR and send ACK. Next USI_SLAVE_REQUEST_DATA
	case USI_SLAVE_GET_DATA_AND_SEND_ACK:
		// Put data into Buffer
		USI_TWI_Overflow_State = USI_SLAVE_REQUEST_DATA;
 69a:	84 e0       	ldi	r24, 0x04	; 4
 69c:	80 93 95 00 	sts	0x0095, r24	; 0x800095 <USI_TWI_Overflow_State>
C:\Users\wesley.furuya\AppData\Local\Arduino15\packages\ATTinyCore\hardware\avr\1.2.3\libraries\Wire\src\USI_TWI_Slave/USI_TWI_Slave.c:298
		tmpUSIDR              = USIDR; // Not necessary, but prevents warnings
 6a0:	9f b1       	in	r25, 0x0f	; 15
C:\Users\wesley.furuya\AppData\Local\Arduino15\packages\ATTinyCore\hardware\avr\1.2.3\libraries\Wire\src\USI_TWI_Slave/USI_TWI_Slave.c:299
		tmpRxHead = (TWI_RxHead + 1) & TWI_RX_BUFFER_MASK;
 6a2:	80 91 94 00 	lds	r24, 0x0094	; 0x800094 <TWI_RxHead>
 6a6:	8f 5f       	subi	r24, 0xFF	; 255
 6a8:	8f 70       	andi	r24, 0x0F	; 15
C:\Users\wesley.furuya\AppData\Local\Arduino15\packages\ATTinyCore\hardware\avr\1.2.3\libraries\Wire\src\USI_TWI_Slave/USI_TWI_Slave.c:300
		if (TWI_RxTail != tmpRxHead) {
 6aa:	20 91 93 00 	lds	r18, 0x0093	; 0x800093 <TWI_RxTail>
 6ae:	28 17       	cp	r18, r24
 6b0:	49 f0       	breq	.+18     	; 0x6c4 <__vector_14+0x13e>
C:\Users\wesley.furuya\AppData\Local\Arduino15\packages\ATTinyCore\hardware\avr\1.2.3\libraries\Wire\src\USI_TWI_Slave/USI_TWI_Slave.c:301
			TWI_RxHead            = tmpRxHead;
 6b2:	80 93 94 00 	sts	0x0094, r24	; 0x800094 <TWI_RxHead>
C:\Users\wesley.furuya\AppData\Local\Arduino15\packages\ATTinyCore\hardware\avr\1.2.3\libraries\Wire\src\USI_TWI_Slave/USI_TWI_Slave.c:302
			TWI_RxBuf[TWI_RxHead] = tmpUSIDR;
 6b6:	e0 91 94 00 	lds	r30, 0x0094	; 0x800094 <TWI_RxHead>
 6ba:	f0 e0       	ldi	r31, 0x00	; 0
 6bc:	ec 55       	subi	r30, 0x5C	; 92
 6be:	ff 4f       	sbci	r31, 0xFF	; 255
 6c0:	90 83       	st	Z, r25
 6c2:	a3 cf       	rjmp	.-186    	; 0x60a <__vector_14+0x84>
C:\Users\wesley.furuya\AppData\Local\Arduino15\packages\ATTinyCore\hardware\avr\1.2.3\libraries\Wire\src\USI_TWI_Slave/USI_TWI_Slave.c:306
			SET_USI_TO_SEND_ACK();
		} else // If the buffer is full then:
		{
			SET_USI_TO_SEND_NACK();
 6c4:	b8 98       	cbi	0x17, 0	; 23
 6c6:	8e e7       	ldi	r24, 0x7E	; 126
 6c8:	8e b9       	out	0x0e, r24	; 14
C:\Users\wesley.furuya\AppData\Local\Arduino15\packages\ATTinyCore\hardware\avr\1.2.3\libraries\Wire\src\USI_TWI_Slave/USI_TWI_Slave.c:310
		}
		break;
	}
}
 6ca:	ff 91       	pop	r31
 6cc:	ef 91       	pop	r30
 6ce:	cf 91       	pop	r28
 6d0:	bf 91       	pop	r27
 6d2:	af 91       	pop	r26
 6d4:	9f 91       	pop	r25
 6d6:	8f 91       	pop	r24
 6d8:	7f 91       	pop	r23
 6da:	6f 91       	pop	r22
 6dc:	5f 91       	pop	r21
 6de:	4f 91       	pop	r20
 6e0:	3f 91       	pop	r19
 6e2:	2f 91       	pop	r18
 6e4:	1f 91       	pop	r17
 6e6:	0f 91       	pop	r16
 6e8:	0f 90       	pop	r0
 6ea:	0f be       	out	0x3f, r0	; 63
 6ec:	0f 90       	pop	r0
 6ee:	1f 90       	pop	r1
 6f0:	18 95       	reti

000006f2 <pcint_null_callback>:
pcint_null_callback():
C:\Users\wesley.furuya\Documents\Arduino\libraries\PinChangeInterrupt-master\src/PinChangeInterrupt0.cpp:36
#if defined(PCINT_ALINKAGE) && defined(PCINT_COMPILE_ENABLED_ISR) && defined(PCINT_INCLUDE_FROM_CPP) \
	|| !defined(PCINT_ALINKAGE) || !defined(PCINT_COMPILE_ENABLED_ISR)

#if (PCINT_USE_PORT0 == true)

void attachPinChangeInterrupt0(void) {
 6f2:	08 95       	ret

000006f4 <PinChangeInterruptEventPCINT0()>:
_Z29PinChangeInterruptEventPCINT0v():
C:\Users\wesley.furuya\Documents\Arduino\libraries\PinChangeInterrupt-master\src/PinChangeInterrupt0.cpp:99
}
*/
#if (PCINT_USE_PCINT0 == true)
volatile callback callbackPCINT0 = pcint_null_callback;
void PinChangeInterruptEventPCINT0(void) {
	callbackPCINT0();
 6f4:	e0 91 86 00 	lds	r30, 0x0086	; 0x800086 <callbackPCINT0>
 6f8:	f0 91 87 00 	lds	r31, 0x0087	; 0x800087 <callbackPCINT0+0x1>
 6fc:	09 94       	ijmp

000006fe <PinChangeInterruptEventPCINT1()>:
_Z29PinChangeInterruptEventPCINT1v():
C:\Users\wesley.furuya\Documents\Arduino\libraries\PinChangeInterrupt-master\src/PinChangeInterrupt0.cpp:105
}
#endif
#if (PCINT_USE_PCINT1 == true)
volatile callback callbackPCINT1 = pcint_null_callback;
void PinChangeInterruptEventPCINT1(void) {
	callbackPCINT1();
 6fe:	e0 91 84 00 	lds	r30, 0x0084	; 0x800084 <callbackPCINT1>
 702:	f0 91 85 00 	lds	r31, 0x0085	; 0x800085 <callbackPCINT1+0x1>
 706:	09 94       	ijmp

00000708 <PinChangeInterruptEventPCINT2()>:
_Z29PinChangeInterruptEventPCINT2v():
C:\Users\wesley.furuya\Documents\Arduino\libraries\PinChangeInterrupt-master\src/PinChangeInterrupt0.cpp:111
}
#endif
#if (PCINT_USE_PCINT2 == true)
volatile callback callbackPCINT2 = pcint_null_callback;
void PinChangeInterruptEventPCINT2(void) {
	callbackPCINT2();
 708:	e0 91 82 00 	lds	r30, 0x0082	; 0x800082 <callbackPCINT2>
 70c:	f0 91 83 00 	lds	r31, 0x0083	; 0x800083 <callbackPCINT2+0x1>
 710:	09 94       	ijmp

00000712 <PinChangeInterruptEventPCINT3()>:
_Z29PinChangeInterruptEventPCINT3v():
C:\Users\wesley.furuya\Documents\Arduino\libraries\PinChangeInterrupt-master\src/PinChangeInterrupt0.cpp:117
}
#endif
#if (PCINT_USE_PCINT3 == true)
volatile callback callbackPCINT3 = pcint_null_callback;
void PinChangeInterruptEventPCINT3(void) {
	callbackPCINT3();
 712:	e0 91 80 00 	lds	r30, 0x0080	; 0x800080 <callbackPCINT3>
 716:	f0 91 81 00 	lds	r31, 0x0081	; 0x800081 <callbackPCINT3+0x1>
 71a:	09 94       	ijmp

0000071c <PinChangeInterruptEventPCINT4()>:
_Z29PinChangeInterruptEventPCINT4v():
C:\Users\wesley.furuya\Documents\Arduino\libraries\PinChangeInterrupt-master\src/PinChangeInterrupt0.cpp:123
}
#endif
#if (PCINT_USE_PCINT4 == true)
volatile callback callbackPCINT4 = pcint_null_callback;
void PinChangeInterruptEventPCINT4(void) {
	callbackPCINT4();
 71c:	e0 91 7e 00 	lds	r30, 0x007E	; 0x80007e <callbackPCINT4>
 720:	f0 91 7f 00 	lds	r31, 0x007F	; 0x80007f <callbackPCINT4+0x1>
 724:	09 94       	ijmp

00000726 <PinChangeInterruptEventPCINT5()>:
_Z29PinChangeInterruptEventPCINT5v():
C:\Users\wesley.furuya\Documents\Arduino\libraries\PinChangeInterrupt-master\src/PinChangeInterrupt0.cpp:129
}
#endif
#if (PCINT_USE_PCINT5 == true)
volatile callback callbackPCINT5 = pcint_null_callback;
void PinChangeInterruptEventPCINT5(void) {
	callbackPCINT5();
 726:	e0 91 7c 00 	lds	r30, 0x007C	; 0x80007c <callbackPCINT5>
 72a:	f0 91 7d 00 	lds	r31, 0x007D	; 0x80007d <callbackPCINT5+0x1>
 72e:	09 94       	ijmp

00000730 <__vector_2>:
__vector_2():
C:\Users\wesley.furuya\Documents\Arduino\libraries\PinChangeInterrupt-master\src/PinChangeInterrupt0.cpp:40

void attachPinChangeInterrupt0(void) {
	// fake function to make the IDE link this file
}

ISR(PCINT0_vect) {
 730:	1f 92       	push	r1
 732:	0f 92       	push	r0
 734:	0f b6       	in	r0, 0x3f	; 63
 736:	0f 92       	push	r0
 738:	11 24       	eor	r1, r1
 73a:	2f 93       	push	r18
 73c:	3f 93       	push	r19
 73e:	4f 93       	push	r20
 740:	5f 93       	push	r21
 742:	6f 93       	push	r22
 744:	7f 93       	push	r23
 746:	8f 93       	push	r24
 748:	9f 93       	push	r25
 74a:	af 93       	push	r26
 74c:	bf 93       	push	r27
 74e:	cf 93       	push	r28
 750:	ef 93       	push	r30
 752:	ff 93       	push	r31
C:\Users\wesley.furuya\Documents\Arduino\libraries\PinChangeInterrupt-master\src/PinChangeInterrupt0.cpp:42
	// get the new and old pin states for port
	uint8_t newPort = PCINT_INPUT_PORT0;
 754:	26 b3       	in	r18, 0x16	; 22
C:\Users\wesley.furuya\Documents\Arduino\libraries\PinChangeInterrupt-master\src/PinChangeInterrupt0.cpp:46

	// compare with the old value to detect a rising or falling
	uint8_t arrayPos = getArrayPosPCINT(0);
	uint8_t change = newPort ^ oldPorts[arrayPos];
 756:	80 91 99 00 	lds	r24, 0x0099	; 0x800099 <oldPorts>
 75a:	c0 91 98 00 	lds	r28, 0x0098	; 0x800098 <fallingPorts>
 75e:	c8 23       	and	r28, r24
 760:	90 91 97 00 	lds	r25, 0x0097	; 0x800097 <risingPorts>
 764:	92 23       	and	r25, r18
C:\Users\wesley.furuya\Documents\Arduino\libraries\PinChangeInterrupt-master\src/PinChangeInterrupt0.cpp:53
	uint8_t falling = change & oldPorts[arrayPos];

	// check which pins are triggered, compared with the settings
	uint8_t risingTrigger = rising & risingPorts[arrayPos];
	uint8_t fallingTrigger = falling & fallingPorts[arrayPos];
	uint8_t trigger = risingTrigger | fallingTrigger;
 766:	c9 2b       	or	r28, r25
C:\Users\wesley.furuya\Documents\Arduino\libraries\PinChangeInterrupt-master\src/PinChangeInterrupt0.cpp:46
	// get the new and old pin states for port
	uint8_t newPort = PCINT_INPUT_PORT0;

	// compare with the old value to detect a rising or falling
	uint8_t arrayPos = getArrayPosPCINT(0);
	uint8_t change = newPort ^ oldPorts[arrayPos];
 768:	82 27       	eor	r24, r18
C:\Users\wesley.furuya\Documents\Arduino\libraries\PinChangeInterrupt-master\src/PinChangeInterrupt0.cpp:53
	uint8_t falling = change & oldPorts[arrayPos];

	// check which pins are triggered, compared with the settings
	uint8_t risingTrigger = rising & risingPorts[arrayPos];
	uint8_t fallingTrigger = falling & fallingPorts[arrayPos];
	uint8_t trigger = risingTrigger | fallingTrigger;
 76a:	c8 23       	and	r28, r24
C:\Users\wesley.furuya\Documents\Arduino\libraries\PinChangeInterrupt-master\src/PinChangeInterrupt0.cpp:56

	// save the new state for next comparison
	oldPorts[arrayPos] = newPort;
 76c:	20 93 99 00 	sts	0x0099, r18	; 0x800099 <oldPorts>
C:\Users\wesley.furuya\Documents\Arduino\libraries\PinChangeInterrupt-master\src/PinChangeInterrupt0.cpp:63
	// Execute all functions that should be triggered
	// This way we can exclude a single function
	// and the calling is also much faster
	// We may also reorder the pins for different priority
#if !defined(PCINT_CALLBACK_PORT0)
	PCINT_CALLBACK(0, 0);
 770:	c0 fd       	sbrc	r28, 0
C:\Users\wesley.furuya\Documents\Arduino\libraries\PinChangeInterrupt-master\src/PinChangeInterrupt0.cpp:63 (discriminator 1)
 772:	c0 df       	rcall	.-128    	; 0x6f4 <PinChangeInterruptEventPCINT0()>
C:\Users\wesley.furuya\Documents\Arduino\libraries\PinChangeInterrupt-master\src/PinChangeInterrupt0.cpp:64
	PCINT_CALLBACK(1, 1);
 774:	c1 fd       	sbrc	r28, 1
C:\Users\wesley.furuya\Documents\Arduino\libraries\PinChangeInterrupt-master\src/PinChangeInterrupt0.cpp:64 (discriminator 1)
 776:	c3 df       	rcall	.-122    	; 0x6fe <PinChangeInterruptEventPCINT1()>
C:\Users\wesley.furuya\Documents\Arduino\libraries\PinChangeInterrupt-master\src/PinChangeInterrupt0.cpp:65
	PCINT_CALLBACK(2, 2);
 778:	c2 fd       	sbrc	r28, 2
C:\Users\wesley.furuya\Documents\Arduino\libraries\PinChangeInterrupt-master\src/PinChangeInterrupt0.cpp:65 (discriminator 1)
 77a:	c6 df       	rcall	.-116    	; 0x708 <PinChangeInterruptEventPCINT2()>
C:\Users\wesley.furuya\Documents\Arduino\libraries\PinChangeInterrupt-master\src/PinChangeInterrupt0.cpp:66
	PCINT_CALLBACK(3, 3);
 77c:	c3 fd       	sbrc	r28, 3
C:\Users\wesley.furuya\Documents\Arduino\libraries\PinChangeInterrupt-master\src/PinChangeInterrupt0.cpp:66 (discriminator 1)
 77e:	c9 df       	rcall	.-110    	; 0x712 <PinChangeInterruptEventPCINT3()>
C:\Users\wesley.furuya\Documents\Arduino\libraries\PinChangeInterrupt-master\src/PinChangeInterrupt0.cpp:67
	PCINT_CALLBACK(4, 4);
 780:	c4 fd       	sbrc	r28, 4
C:\Users\wesley.furuya\Documents\Arduino\libraries\PinChangeInterrupt-master\src/PinChangeInterrupt0.cpp:67 (discriminator 1)
 782:	cc df       	rcall	.-104    	; 0x71c <PinChangeInterruptEventPCINT4()>
C:\Users\wesley.furuya\Documents\Arduino\libraries\PinChangeInterrupt-master\src/PinChangeInterrupt0.cpp:68
	PCINT_CALLBACK(5, 5);
 784:	c5 fd       	sbrc	r28, 5
C:\Users\wesley.furuya\Documents\Arduino\libraries\PinChangeInterrupt-master\src/PinChangeInterrupt0.cpp:68 (discriminator 1)
 786:	cf df       	rcall	.-98     	; 0x726 <PinChangeInterruptEventPCINT5()>
C:\Users\wesley.furuya\Documents\Arduino\libraries\PinChangeInterrupt-master\src/PinChangeInterrupt0.cpp:74
	PCINT_CALLBACK(6, 6);
	PCINT_CALLBACK(7, 7);
#else
	PCINT_CALLBACK_PORT0
#endif
}
 788:	ff 91       	pop	r31
 78a:	ef 91       	pop	r30
 78c:	cf 91       	pop	r28
 78e:	bf 91       	pop	r27
 790:	af 91       	pop	r26
 792:	9f 91       	pop	r25
 794:	8f 91       	pop	r24
 796:	7f 91       	pop	r23
 798:	6f 91       	pop	r22
 79a:	5f 91       	pop	r21
 79c:	4f 91       	pop	r20
 79e:	3f 91       	pop	r19
 7a0:	2f 91       	pop	r18
 7a2:	0f 90       	pop	r0
 7a4:	0f be       	out	0x3f, r0	; 63
 7a6:	0f 90       	pop	r0
 7a8:	1f 90       	pop	r1
 7aa:	18 95       	reti

000007ac <enablePinChangeInterruptHelper(unsigned char, unsigned char, unsigned char)>:
_Z30enablePinChangeInterruptHelperhhh():
C:\Users\wesley.furuya\Documents\Arduino\libraries\PinChangeInterrupt-master\src/PinChangeInterrupt.cpp:101
uint8_t fallingPorts[PCINT_NUM_USED_PORTS] = { 0 };
uint8_t risingPorts[PCINT_NUM_USED_PORTS] = { 0 };

void enablePinChangeInterruptHelper(const uint8_t pcintPort, const uint8_t pcintMask, const uint8_t arrayPos){
	// Update the old state to the actual state
	switch(pcintPort){
 7ac:	81 11       	cpse	r24, r1
 7ae:	06 c0       	rjmp	.+12     	; 0x7bc <enablePinChangeInterruptHelper(unsigned char, unsigned char, unsigned char)+0x10>
C:\Users\wesley.furuya\Documents\Arduino\libraries\PinChangeInterrupt-master\src/PinChangeInterrupt.cpp:104
#ifdef PCINT_INPUT_PORT0_USED
		case 0:
			oldPorts[arrayPos] = PCINT_INPUT_PORT0;
 7b0:	96 b3       	in	r25, 0x16	; 22
 7b2:	e4 2f       	mov	r30, r20
 7b4:	f0 e0       	ldi	r31, 0x00	; 0
 7b6:	e7 56       	subi	r30, 0x67	; 103
 7b8:	ff 4f       	sbci	r31, 0xFF	; 255
 7ba:	90 83       	st	Z, r25
C:\Users\wesley.furuya\Documents\Arduino\libraries\PinChangeInterrupt-master\src/PinChangeInterrupt.cpp:160
#endif
		}
	}
#endif
#elif defined(PCMSK)
	*(&PCMSK + pcintPort) |= pcintMask;
 7bc:	e8 2f       	mov	r30, r24
 7be:	f0 e0       	ldi	r31, 0x00	; 0
 7c0:	85 a9       	ldd	r24, Z+53	; 0x35
 7c2:	68 2b       	or	r22, r24
 7c4:	65 ab       	std	Z+53, r22	; 0x35
C:\Users\wesley.furuya\Documents\Arduino\libraries\PinChangeInterrupt-master\src/PinChangeInterrupt.cpp:171
#elif defined(GICR) /* e.g. ATmega162 */
	GICR |= (1  << (pcintPort + PCIE0));
#elif defined(GIMSK) && defined(PCIE0) /* e.g. ATtiny X4 */
	GIMSK |= (1  << (pcintPort + PCIE0));
#elif defined(GIMSK) && defined(PCIE) /* e.g. ATtiny X5 */
	GIMSK |= (1  << (pcintPort + PCIE));
 7c6:	2b b7       	in	r18, 0x3b	; 59
 7c8:	35 96       	adiw	r30, 0x05	; 5
 7ca:	81 e0       	ldi	r24, 0x01	; 1
 7cc:	90 e0       	ldi	r25, 0x00	; 0
 7ce:	01 c0       	rjmp	.+2      	; 0x7d2 <enablePinChangeInterruptHelper(unsigned char, unsigned char, unsigned char)+0x26>
 7d0:	88 0f       	add	r24, r24
 7d2:	ea 95       	dec	r30
 7d4:	ea f7       	brpl	.-6      	; 0x7d0 <enablePinChangeInterruptHelper(unsigned char, unsigned char, unsigned char)+0x24>
 7d6:	82 2b       	or	r24, r18
 7d8:	8b bf       	out	0x3b, r24	; 59
 7da:	08 95       	ret

000007dc <analogRead>:
analogRead():
C:\Users\wesley.furuya\AppData\Local\Arduino15\packages\ATTinyCore\hardware\avr\1.2.3\cores\tiny/wiring_analog.c:72
  #ifndef ADCSRA
  return digitalRead(analogInputToDigitalPin(pin)) ? 1023 : 0; //No ADC, so read as a digital pin instead.
  #endif
  
  #if defined(ADMUX)
  ADMUX = ((analog_reference & ADMUX_REFS_MASK) << REFS0) | ((pin & ADMUX_MUX_MASK) << MUX0); //select the channel and reference
 7dc:	8f 70       	andi	r24, 0x0F	; 15
 7de:	90 91 9a 00 	lds	r25, 0x009A	; 0x80009a <analog_reference>
 7e2:	92 95       	swap	r25
 7e4:	99 0f       	add	r25, r25
 7e6:	99 0f       	add	r25, r25
 7e8:	90 7c       	andi	r25, 0xC0	; 192
 7ea:	89 2b       	or	r24, r25
 7ec:	87 b9       	out	0x07, r24	; 7
C:\Users\wesley.furuya\AppData\Local\Arduino15\packages\ATTinyCore\hardware\avr\1.2.3\cores\tiny/wiring_analog.c:74
  #if defined(REFS2)
  ADMUX |= (((analog_reference & 0x04) >> 2) << REFS2); //some have an extra reference bit in a weird position.
 7ee:	87 b1       	in	r24, 0x07	; 7
 7f0:	90 91 9a 00 	lds	r25, 0x009A	; 0x80009a <analog_reference>
 7f4:	92 fb       	bst	r25, 2
 7f6:	22 27       	eor	r18, r18
 7f8:	20 f9       	bld	r18, 0
 7fa:	30 e0       	ldi	r19, 0x00	; 0
 7fc:	94 e0       	ldi	r25, 0x04	; 4
 7fe:	22 0f       	add	r18, r18
 800:	33 1f       	adc	r19, r19
 802:	9a 95       	dec	r25
 804:	e1 f7       	brne	.-8      	; 0x7fe <analogRead+0x22>
 806:	28 2b       	or	r18, r24
 808:	27 b9       	out	0x07, r18	; 7
C:\Users\wesley.furuya\AppData\Local\Arduino15\packages\ATTinyCore\hardware\avr\1.2.3\cores\tiny/wiring_analog.c:79
  #endif
  #endif
  
  #if defined(HAVE_ADC) && HAVE_ADC
  sbi(ADCSRA, ADSC); //Start conversion
 80a:	36 9a       	sbi	0x06, 6	; 6
C:\Users\wesley.furuya\AppData\Local\Arduino15\packages\ATTinyCore\hardware\avr\1.2.3\cores\tiny/wiring_analog.c:81 (discriminator 1)

  while(ADCSRA & (1<<ADSC)); //Wait for conversion to complete.
 80c:	36 99       	sbic	0x06, 6	; 6
 80e:	fe cf       	rjmp	.-4      	; 0x80c <analogRead+0x30>
C:\Users\wesley.furuya\AppData\Local\Arduino15\packages\ATTinyCore\hardware\avr\1.2.3\cores\tiny/wiring_analog.c:83

  uint8_t low = ADCL;
 810:	84 b1       	in	r24, 0x04	; 4
C:\Users\wesley.furuya\AppData\Local\Arduino15\packages\ATTinyCore\hardware\avr\1.2.3\cores\tiny/wiring_analog.c:84
  uint8_t high = ADCH;
 812:	25 b1       	in	r18, 0x05	; 5
C:\Users\wesley.furuya\AppData\Local\Arduino15\packages\ATTinyCore\hardware\avr\1.2.3\cores\tiny/wiring_analog.c:85
  return (high << 8) | low;
 814:	90 e0       	ldi	r25, 0x00	; 0
C:\Users\wesley.furuya\AppData\Local\Arduino15\packages\ATTinyCore\hardware\avr\1.2.3\cores\tiny/wiring_analog.c:89
  #else
  return LOW;
  #endif
}
 816:	92 2b       	or	r25, r18
 818:	08 95       	ret

0000081a <turnOffPWM>:
turnOffPWM():
C:\Users\wesley.furuya\AppData\Local\Arduino15\packages\ATTinyCore\hardware\avr\1.2.3\cores\tiny/wiring_digital.c:163
		uint8_t oldSREG = SREG;
    cli();
		*out |= bit;
		SREG = oldSREG;
	}
}
 81a:	81 30       	cpi	r24, 0x01	; 1
 81c:	31 f4       	brne	.+12     	; 0x82a <turnOffPWM+0x10>
 81e:	8a b5       	in	r24, 0x2a	; 42
 820:	8f 77       	andi	r24, 0x7F	; 127
 822:	8a bd       	out	0x2a, r24	; 42
 824:	8a b5       	in	r24, 0x2a	; 42
 826:	8f 7b       	andi	r24, 0xBF	; 191
 828:	07 c0       	rjmp	.+14     	; 0x838 <turnOffPWM+0x1e>
 82a:	82 30       	cpi	r24, 0x02	; 2
 82c:	39 f4       	brne	.+14     	; 0x83c <turnOffPWM+0x22>
 82e:	8a b5       	in	r24, 0x2a	; 42
 830:	8f 7d       	andi	r24, 0xDF	; 223
 832:	8a bd       	out	0x2a, r24	; 42
 834:	8a b5       	in	r24, 0x2a	; 42
 836:	8f 7e       	andi	r24, 0xEF	; 239
 838:	8a bd       	out	0x2a, r24	; 42
 83a:	08 95       	ret
 83c:	83 30       	cpi	r24, 0x03	; 3
 83e:	39 f4       	brne	.+14     	; 0x84e <turnOffPWM+0x34>
 840:	80 b7       	in	r24, 0x30	; 48
 842:	8f 7d       	andi	r24, 0xDF	; 223
 844:	80 bf       	out	0x30, r24	; 48
 846:	80 b7       	in	r24, 0x30	; 48
 848:	8f 7e       	andi	r24, 0xEF	; 239
 84a:	80 bf       	out	0x30, r24	; 48
 84c:	08 95       	ret
 84e:	84 30       	cpi	r24, 0x04	; 4
 850:	31 f4       	brne	.+12     	; 0x85e <turnOffPWM+0x44>
 852:	8c b5       	in	r24, 0x2c	; 44
 854:	8f 7d       	andi	r24, 0xDF	; 223
 856:	8c bd       	out	0x2c, r24	; 44
 858:	8c b5       	in	r24, 0x2c	; 44
 85a:	8f 7e       	andi	r24, 0xEF	; 239
 85c:	8c bd       	out	0x2c, r24	; 44
 85e:	08 95       	ret

00000860 <pinMode>:
pinMode():
 860:	cf 93       	push	r28
 862:	df 93       	push	r29
 864:	87 ff       	sbrs	r24, 7
 866:	11 c0       	rjmp	.+34     	; 0x88a <pinMode+0x2a>
 868:	8f 77       	andi	r24, 0x7F	; 127
 86a:	41 f0       	breq	.+16     	; 0x87c <pinMode+0x1c>
 86c:	81 30       	cpi	r24, 0x01	; 1
 86e:	41 f0       	breq	.+16     	; 0x880 <pinMode+0x20>
 870:	82 30       	cpi	r24, 0x02	; 2
 872:	41 f0       	breq	.+16     	; 0x884 <pinMode+0x24>
 874:	83 30       	cpi	r24, 0x03	; 3
 876:	41 f0       	breq	.+16     	; 0x888 <pinMode+0x28>
 878:	8f ef       	ldi	r24, 0xFF	; 255
 87a:	07 c0       	rjmp	.+14     	; 0x88a <pinMode+0x2a>
 87c:	85 e0       	ldi	r24, 0x05	; 5
 87e:	05 c0       	rjmp	.+10     	; 0x88a <pinMode+0x2a>
 880:	82 e0       	ldi	r24, 0x02	; 2
 882:	03 c0       	rjmp	.+6      	; 0x88a <pinMode+0x2a>
 884:	84 e0       	ldi	r24, 0x04	; 4
 886:	01 c0       	rjmp	.+2      	; 0x88a <pinMode+0x2a>
 888:	83 e0       	ldi	r24, 0x03	; 3
 88a:	90 e0       	ldi	r25, 0x00	; 0
 88c:	fc 01       	movw	r30, r24
 88e:	ec 5d       	subi	r30, 0xDC	; 220
 890:	ff 4f       	sbci	r31, 0xFF	; 255
 892:	24 91       	lpm	r18, Z
 894:	fc 01       	movw	r30, r24
 896:	e6 5d       	subi	r30, 0xD6	; 214
 898:	ff 4f       	sbci	r31, 0xFF	; 255
 89a:	84 91       	lpm	r24, Z
 89c:	88 23       	and	r24, r24
 89e:	61 f1       	breq	.+88     	; 0x8f8 <pinMode+0x98>
 8a0:	90 e0       	ldi	r25, 0x00	; 0
 8a2:	88 0f       	add	r24, r24
 8a4:	99 1f       	adc	r25, r25
 8a6:	fc 01       	movw	r30, r24
 8a8:	e4 5c       	subi	r30, 0xC4	; 196
 8aa:	ff 4f       	sbci	r31, 0xFF	; 255
 8ac:	c5 91       	lpm	r28, Z+
 8ae:	d4 91       	lpm	r29, Z
 8b0:	fc 01       	movw	r30, r24
 8b2:	ea 5c       	subi	r30, 0xCA	; 202
 8b4:	ff 4f       	sbci	r31, 0xFF	; 255
 8b6:	a5 91       	lpm	r26, Z+
 8b8:	b4 91       	lpm	r27, Z
 8ba:	61 11       	cpse	r22, r1
 8bc:	09 c0       	rjmp	.+18     	; 0x8d0 <pinMode+0x70>
 8be:	9f b7       	in	r25, 0x3f	; 63
 8c0:	f8 94       	cli
 8c2:	88 81       	ld	r24, Y
 8c4:	20 95       	com	r18
 8c6:	82 23       	and	r24, r18
 8c8:	88 83       	st	Y, r24
 8ca:	ec 91       	ld	r30, X
 8cc:	2e 23       	and	r18, r30
 8ce:	0b c0       	rjmp	.+22     	; 0x8e6 <pinMode+0x86>
 8d0:	62 30       	cpi	r22, 0x02	; 2
 8d2:	61 f4       	brne	.+24     	; 0x8ec <pinMode+0x8c>
 8d4:	9f b7       	in	r25, 0x3f	; 63
 8d6:	f8 94       	cli
 8d8:	38 81       	ld	r19, Y
 8da:	82 2f       	mov	r24, r18
 8dc:	80 95       	com	r24
 8de:	83 23       	and	r24, r19
 8e0:	88 83       	st	Y, r24
 8e2:	ec 91       	ld	r30, X
 8e4:	2e 2b       	or	r18, r30
 8e6:	2c 93       	st	X, r18
 8e8:	9f bf       	out	0x3f, r25	; 63
 8ea:	06 c0       	rjmp	.+12     	; 0x8f8 <pinMode+0x98>
 8ec:	8f b7       	in	r24, 0x3f	; 63
 8ee:	f8 94       	cli
 8f0:	e8 81       	ld	r30, Y
 8f2:	2e 2b       	or	r18, r30
 8f4:	28 83       	st	Y, r18
 8f6:	8f bf       	out	0x3f, r24	; 63
 8f8:	df 91       	pop	r29
 8fa:	cf 91       	pop	r28
 8fc:	08 95       	ret

000008fe <digitalRead>:
digitalRead():
C:\Users\wesley.furuya\AppData\Local\Arduino15\packages\ATTinyCore\hardware\avr\1.2.3\cores\tiny/wiring_digital.c:166

int digitalRead(uint8_t pin)
{
 8fe:	cf 93       	push	r28
 900:	df 93       	push	r29
C:\Users\wesley.furuya\AppData\Local\Arduino15\packages\ATTinyCore\hardware\avr\1.2.3\cores\tiny/wiring_digital.c:167
	if (pin&128) {pin=analogInputToDigitalPin((pin&127));}
 902:	87 ff       	sbrs	r24, 7
 904:	11 c0       	rjmp	.+34     	; 0x928 <digitalRead+0x2a>
C:\Users\wesley.furuya\AppData\Local\Arduino15\packages\ATTinyCore\hardware\avr\1.2.3\cores\tiny/wiring_digital.c:167 (discriminator 1)
 906:	8f 77       	andi	r24, 0x7F	; 127
 908:	41 f0       	breq	.+16     	; 0x91a <digitalRead+0x1c>
C:\Users\wesley.furuya\AppData\Local\Arduino15\packages\ATTinyCore\hardware\avr\1.2.3\cores\tiny/wiring_digital.c:167 (discriminator 2)
 90a:	81 30       	cpi	r24, 0x01	; 1
 90c:	41 f0       	breq	.+16     	; 0x91e <digitalRead+0x20>
C:\Users\wesley.furuya\AppData\Local\Arduino15\packages\ATTinyCore\hardware\avr\1.2.3\cores\tiny/wiring_digital.c:167 (discriminator 4)
 90e:	82 30       	cpi	r24, 0x02	; 2
 910:	41 f0       	breq	.+16     	; 0x922 <digitalRead+0x24>
C:\Users\wesley.furuya\AppData\Local\Arduino15\packages\ATTinyCore\hardware\avr\1.2.3\cores\tiny/wiring_digital.c:167 (discriminator 6)
 912:	83 30       	cpi	r24, 0x03	; 3
 914:	41 f0       	breq	.+16     	; 0x926 <digitalRead+0x28>
C:\Users\wesley.furuya\AppData\Local\Arduino15\packages\ATTinyCore\hardware\avr\1.2.3\cores\tiny/wiring_digital.c:167
 916:	8f ef       	ldi	r24, 0xFF	; 255
 918:	07 c0       	rjmp	.+14     	; 0x928 <digitalRead+0x2a>
 91a:	85 e0       	ldi	r24, 0x05	; 5
 91c:	05 c0       	rjmp	.+10     	; 0x928 <digitalRead+0x2a>
 91e:	82 e0       	ldi	r24, 0x02	; 2
 920:	03 c0       	rjmp	.+6      	; 0x928 <digitalRead+0x2a>
 922:	84 e0       	ldi	r24, 0x04	; 4
 924:	01 c0       	rjmp	.+2      	; 0x928 <digitalRead+0x2a>
 926:	83 e0       	ldi	r24, 0x03	; 3
C:\Users\wesley.furuya\AppData\Local\Arduino15\packages\ATTinyCore\hardware\avr\1.2.3\cores\tiny/wiring_digital.c:168
	uint8_t timer = digitalPinToTimer(pin);
 928:	28 2f       	mov	r18, r24
 92a:	30 e0       	ldi	r19, 0x00	; 0
 92c:	f9 01       	movw	r30, r18
 92e:	e2 5e       	subi	r30, 0xE2	; 226
 930:	ff 4f       	sbci	r31, 0xFF	; 255
 932:	84 91       	lpm	r24, Z
C:\Users\wesley.furuya\AppData\Local\Arduino15\packages\ATTinyCore\hardware\avr\1.2.3\cores\tiny/wiring_digital.c:169
	uint8_t bit = digitalPinToBitMask(pin);
 934:	f9 01       	movw	r30, r18
 936:	ec 5d       	subi	r30, 0xDC	; 220
 938:	ff 4f       	sbci	r31, 0xFF	; 255
 93a:	d4 91       	lpm	r29, Z
C:\Users\wesley.furuya\AppData\Local\Arduino15\packages\ATTinyCore\hardware\avr\1.2.3\cores\tiny/wiring_digital.c:170
	uint8_t port = digitalPinToPort(pin);
 93c:	f9 01       	movw	r30, r18
 93e:	e6 5d       	subi	r30, 0xD6	; 214
 940:	ff 4f       	sbci	r31, 0xFF	; 255
 942:	c4 91       	lpm	r28, Z
C:\Users\wesley.furuya\AppData\Local\Arduino15\packages\ATTinyCore\hardware\avr\1.2.3\cores\tiny/wiring_digital.c:172

	if (port == NOT_A_PIN) return LOW;
 944:	cc 23       	and	r28, r28
 946:	89 f0       	breq	.+34     	; 0x96a <digitalRead+0x6c>
C:\Users\wesley.furuya\AppData\Local\Arduino15\packages\ATTinyCore\hardware\avr\1.2.3\cores\tiny/wiring_digital.c:176

	// If the pin that support PWM output, we need to turn it off
	// before getting a digital reading.
	if (timer != NOT_ON_TIMER) turnOffPWM(timer);
 948:	81 11       	cpse	r24, r1
C:\Users\wesley.furuya\AppData\Local\Arduino15\packages\ATTinyCore\hardware\avr\1.2.3\cores\tiny/wiring_digital.c:176 (discriminator 1)
 94a:	67 df       	rcall	.-306    	; 0x81a <turnOffPWM>
C:\Users\wesley.furuya\AppData\Local\Arduino15\packages\ATTinyCore\hardware\avr\1.2.3\cores\tiny/wiring_digital.c:178

	if (*portInputRegister(port) & bit) return HIGH;
 94c:	ec 2f       	mov	r30, r28
 94e:	f0 e0       	ldi	r31, 0x00	; 0
 950:	ee 0f       	add	r30, r30
 952:	ff 1f       	adc	r31, r31
 954:	e0 5d       	subi	r30, 0xD0	; 208
 956:	ff 4f       	sbci	r31, 0xFF	; 255
 958:	a5 91       	lpm	r26, Z+
 95a:	b4 91       	lpm	r27, Z
 95c:	ec 91       	ld	r30, X
 95e:	ed 23       	and	r30, r29
 960:	81 e0       	ldi	r24, 0x01	; 1
 962:	90 e0       	ldi	r25, 0x00	; 0
 964:	21 f4       	brne	.+8      	; 0x96e <digitalRead+0x70>
 966:	80 e0       	ldi	r24, 0x00	; 0
 968:	02 c0       	rjmp	.+4      	; 0x96e <digitalRead+0x70>
C:\Users\wesley.furuya\AppData\Local\Arduino15\packages\ATTinyCore\hardware\avr\1.2.3\cores\tiny/wiring_digital.c:172
	if (pin&128) {pin=analogInputToDigitalPin((pin&127));}
	uint8_t timer = digitalPinToTimer(pin);
	uint8_t bit = digitalPinToBitMask(pin);
	uint8_t port = digitalPinToPort(pin);

	if (port == NOT_A_PIN) return LOW;
 96a:	80 e0       	ldi	r24, 0x00	; 0
 96c:	90 e0       	ldi	r25, 0x00	; 0
C:\Users\wesley.furuya\AppData\Local\Arduino15\packages\ATTinyCore\hardware\avr\1.2.3\cores\tiny/wiring_digital.c:180
	// before getting a digital reading.
	if (timer != NOT_ON_TIMER) turnOffPWM(timer);

	if (*portInputRegister(port) & bit) return HIGH;
	return LOW;
}
 96e:	df 91       	pop	r29
 970:	cf 91       	pop	r28
 972:	08 95       	ret

00000974 <main>:
main():
C:\Users\wesley.furuya\AppData\Local\Arduino15\packages\ATTinyCore\hardware\avr\1.2.3\cores\tiny/main.cpp:6
#include <Arduino.h>

int main(void)
{
	#ifdef TUNED_OSCCAL_VALUE
	OSCCAL = TUNED_OSCCAL_VALUE; //set the oscillator calibration value based on the pins_arduino.h file. If this is not set, it will be optimised away
 974:	81 b7       	in	r24, 0x31	; 49
 976:	81 bf       	out	0x31, r24	; 49
C:\Users\wesley.furuya\AppData\Local\Arduino15\packages\ATTinyCore\hardware\avr\1.2.3\cores\tiny/main.cpp:8
    #endif
    init();
 978:	5c d0       	rcall	.+184    	; 0xa32 <init>
C:\Users\wesley.furuya\AppData\Local\Arduino15\packages\ATTinyCore\hardware\avr\1.2.3\cores\tiny/main.cpp:10

	setup();
 97a:	90 dc       	rcall	.-1760   	; 0x29c <setup>
C:\Users\wesley.furuya\AppData\Local\Arduino15\packages\ATTinyCore\hardware\avr\1.2.3\cores\tiny/main.cpp:13 (discriminator 1)
    
	for (;;)
		loop();
 97c:	a4 db       	rcall	.-2232   	; 0xc6 <loop>
C:\Users\wesley.furuya\AppData\Local\Arduino15\packages\ATTinyCore\hardware\avr\1.2.3\cores\tiny/main.cpp:3 (discriminator 1)
#include <Arduino.h>

int main(void)
 97e:	fe cf       	rjmp	.-4      	; 0x97c <main+0x8>

00000980 <initToneTimerInternal>:
initToneTimerInternal():
C:\Users\wesley.furuya\AppData\Local\Arduino15\packages\ATTinyCore\hardware\avr\1.2.3\cores\tiny/wiring.c:590
PLLCSR |= PCKE;
}
#endif
  #if INITIALIZE_SECONDARY_TIMERS
  // Prepare the timer for PWM
    initToneTimerInternal();
 980:	80 b7       	in	r24, 0x30	; 48
 982:	80 7f       	andi	r24, 0xF0	; 240
 984:	80 bf       	out	0x30, r24	; 48
 986:	80 b7       	in	r24, 0x30	; 48
 988:	80 68       	ori	r24, 0x80	; 128
 98a:	80 bf       	out	0x30, r24	; 48
 98c:	8c b5       	in	r24, 0x2c	; 44
 98e:	80 64       	ori	r24, 0x40	; 64
 990:	8c bd       	out	0x2c, r24	; 44
 992:	8f ef       	ldi	r24, 0xFF	; 255
 994:	8d bd       	out	0x2d, r24	; 45
 996:	80 b7       	in	r24, 0x30	; 48
 998:	87 60       	ori	r24, 0x07	; 7
 99a:	80 bf       	out	0x30, r24	; 48
 99c:	08 95       	ret

0000099e <__vector_5>:
__vector_5():
 99e:	1f 92       	push	r1
 9a0:	0f 92       	push	r0
 9a2:	0f b6       	in	r0, 0x3f	; 63
 9a4:	0f 92       	push	r0
 9a6:	11 24       	eor	r1, r1
 9a8:	2f 93       	push	r18
 9aa:	3f 93       	push	r19
 9ac:	8f 93       	push	r24
 9ae:	9f 93       	push	r25
 9b0:	af 93       	push	r26
 9b2:	bf 93       	push	r27
 9b4:	80 91 9c 00 	lds	r24, 0x009C	; 0x80009c <millis_timer_millis>
 9b8:	90 91 9d 00 	lds	r25, 0x009D	; 0x80009d <millis_timer_millis+0x1>
 9bc:	a0 91 9e 00 	lds	r26, 0x009E	; 0x80009e <millis_timer_millis+0x2>
 9c0:	b0 91 9f 00 	lds	r27, 0x009F	; 0x80009f <millis_timer_millis+0x3>
 9c4:	30 91 9b 00 	lds	r19, 0x009B	; 0x80009b <millis_timer_fract>
 9c8:	26 e0       	ldi	r18, 0x06	; 6
 9ca:	23 0f       	add	r18, r19
 9cc:	2d 37       	cpi	r18, 0x7D	; 125
 9ce:	30 f0       	brcs	.+12     	; 0x9dc <__vector_5+0x3e>
 9d0:	29 e8       	ldi	r18, 0x89	; 137
 9d2:	23 0f       	add	r18, r19
 9d4:	03 96       	adiw	r24, 0x03	; 3
 9d6:	a1 1d       	adc	r26, r1
 9d8:	b1 1d       	adc	r27, r1
 9da:	03 c0       	rjmp	.+6      	; 0x9e2 <__vector_5+0x44>
 9dc:	02 96       	adiw	r24, 0x02	; 2
 9de:	a1 1d       	adc	r26, r1
 9e0:	b1 1d       	adc	r27, r1
 9e2:	20 93 9b 00 	sts	0x009B, r18	; 0x80009b <millis_timer_fract>
 9e6:	80 93 9c 00 	sts	0x009C, r24	; 0x80009c <millis_timer_millis>
 9ea:	90 93 9d 00 	sts	0x009D, r25	; 0x80009d <millis_timer_millis+0x1>
 9ee:	a0 93 9e 00 	sts	0x009E, r26	; 0x80009e <millis_timer_millis+0x2>
 9f2:	b0 93 9f 00 	sts	0x009F, r27	; 0x80009f <millis_timer_millis+0x3>
 9f6:	80 91 a0 00 	lds	r24, 0x00A0	; 0x8000a0 <millis_timer_overflow_count>
 9fa:	90 91 a1 00 	lds	r25, 0x00A1	; 0x8000a1 <millis_timer_overflow_count+0x1>
 9fe:	a0 91 a2 00 	lds	r26, 0x00A2	; 0x8000a2 <millis_timer_overflow_count+0x2>
 a02:	b0 91 a3 00 	lds	r27, 0x00A3	; 0x8000a3 <millis_timer_overflow_count+0x3>
 a06:	01 96       	adiw	r24, 0x01	; 1
 a08:	a1 1d       	adc	r26, r1
 a0a:	b1 1d       	adc	r27, r1
 a0c:	80 93 a0 00 	sts	0x00A0, r24	; 0x8000a0 <millis_timer_overflow_count>
 a10:	90 93 a1 00 	sts	0x00A1, r25	; 0x8000a1 <millis_timer_overflow_count+0x1>
 a14:	a0 93 a2 00 	sts	0x00A2, r26	; 0x8000a2 <millis_timer_overflow_count+0x2>
 a18:	b0 93 a3 00 	sts	0x00A3, r27	; 0x8000a3 <millis_timer_overflow_count+0x3>
 a1c:	bf 91       	pop	r27
 a1e:	af 91       	pop	r26
 a20:	9f 91       	pop	r25
 a22:	8f 91       	pop	r24
 a24:	3f 91       	pop	r19
 a26:	2f 91       	pop	r18
 a28:	0f 90       	pop	r0
 a2a:	0f be       	out	0x3f, r0	; 63
 a2c:	0f 90       	pop	r0
 a2e:	1f 90       	pop	r1
 a30:	18 95       	reti

00000a32 <init>:
init():
C:\Users\wesley.furuya\AppData\Local\Arduino15\packages\ATTinyCore\hardware\avr\1.2.3\cores\tiny/wiring.c:753
  #endif
  #endif

  // Use the Millis Timer for fast PWM (unless it doesn't have an output).
  #if (TIMER_TO_USE_FOR_MILLIS == 0) && defined(WGM01)
  sbi(TCCR0A, WGM01);
 a32:	8a b5       	in	r24, 0x2a	; 42
 a34:	82 60       	ori	r24, 0x02	; 2
 a36:	8a bd       	out	0x2a, r24	; 42
C:\Users\wesley.furuya\AppData\Local\Arduino15\packages\ATTinyCore\hardware\avr\1.2.3\cores\tiny/wiring.c:754
  sbi(TCCR0A, WGM00);
 a38:	8a b5       	in	r24, 0x2a	; 42
 a3a:	81 60       	ori	r24, 0x01	; 1
 a3c:	8a bd       	out	0x2a, r24	; 42
C:\Users\wesley.furuya\AppData\Local\Arduino15\packages\ATTinyCore\hardware\avr\1.2.3\cores\tiny/wiring.c:777
  #endif
  
  // Millis timer is always processor clock divided by MillisTimer_Prescale_Value (64)
  #if (TIMER_TO_USE_FOR_MILLIS == 0)
   #ifdef TCCR0B
    TCCR0B = (TCCR0B & ~((1<<CS02)|(1<<CS01)|(1<<CS00))) | (MillisTimer_Prescale_Index << CS00);
 a3e:	83 b7       	in	r24, 0x33	; 51
 a40:	88 7f       	andi	r24, 0xF8	; 248
 a42:	83 60       	ori	r24, 0x03	; 3
 a44:	83 bf       	out	0x33, r24	; 51
C:\Users\wesley.furuya\AppData\Local\Arduino15\packages\ATTinyCore\hardware\avr\1.2.3\cores\tiny/wiring.c:789
  TCCR1B = (TCCR1B & ~((1<<CS13)|(1<<CS12)|(1<<CS11)|(1<<CS10))) | (MillisTimer_Prescale_Index << CS10);
  #elif (TIMER_TO_USE_FOR_MILLIS == 1)
  TCCR1B = (TCCR1B & ~((1<<CS12)|(1<<CS11)|(1<<CS10))) | (MillisTimer_Prescale_Index << CS10);
  #endif
  // this needs to be called before setup() or some functions won't work there
  sei();
 a46:	78 94       	sei
C:\Users\wesley.furuya\AppData\Local\Arduino15\packages\ATTinyCore\hardware\avr\1.2.3\cores\tiny/wiring.c:793
  
  // Enable the overlow interrupt (this is the basic system tic-toc for millis)
  #if defined(TIMSK) && defined(TOIE0) && (TIMER_TO_USE_FOR_MILLIS == 0)
  sbi(TIMSK, TOIE0);
 a48:	89 b7       	in	r24, 0x39	; 57
 a4a:	82 60       	ori	r24, 0x02	; 2
 a4c:	89 bf       	out	0x39, r24	; 57
C:\Users\wesley.furuya\AppData\Local\Arduino15\packages\ATTinyCore\hardware\avr\1.2.3\cores\tiny/wiring.c:806
  #error Millis() Timer overflow interrupt not set correctly
  #endif
  
  // Initialize the timer used for Tone
  #if INITIALIZE_SECONDARY_TIMERS
    initToneTimerInternal();
 a4e:	98 df       	rcall	.-208    	; 0x980 <initToneTimerInternal>
C:\Users\wesley.furuya\AppData\Local\Arduino15\packages\ATTinyCore\hardware\avr\1.2.3\cores\tiny/wiring.c:813

  // Initialize the ADC
  #if defined( INITIALIZE_ANALOG_TO_DIGITAL_CONVERTER ) && INITIALIZE_ANALOG_TO_DIGITAL_CONVERTER
  #if defined(ADCSRA)
    // set a2d prescale factor
	ADCSRA = (ADCSRA & ~((1<<ADPS2)|(1<<ADPS1)|(1<<ADPS0))) | (ADC_ARDUINO_PRESCALER << ADPS0) | (1<<ADEN);
 a50:	86 b1       	in	r24, 0x06	; 6
 a52:	88 77       	andi	r24, 0x78	; 120
 a54:	86 68       	ori	r24, 0x86	; 134
 a56:	86 b9       	out	0x06, r24	; 6
C:\Users\wesley.furuya\AppData\Local\Arduino15\packages\ATTinyCore\hardware\avr\1.2.3\cores\tiny/wiring.c:815
    // enable a2d conversions
    sbi(ADCSRA, ADEN);
 a58:	37 9a       	sbi	0x06, 7	; 6
 a5a:	08 95       	ret

00000a5c <eeprom_read_byte>:
eeprom_read_byte():
 a5c:	e1 99       	sbic	0x1c, 1	; 28
 a5e:	fe cf       	rjmp	.-4      	; 0xa5c <eeprom_read_byte>
 a60:	9f bb       	out	0x1f, r25	; 31
 a62:	8e bb       	out	0x1e, r24	; 30
 a64:	e0 9a       	sbi	0x1c, 0	; 28
 a66:	99 27       	eor	r25, r25
 a68:	8d b3       	in	r24, 0x1d	; 29
 a6a:	08 95       	ret

00000a6c <eeprom_write_byte>:
eeprom_write_byte():
 a6c:	26 2f       	mov	r18, r22

00000a6e <eeprom_write_r18>:
 a6e:	e1 99       	sbic	0x1c, 1	; 28
 a70:	fe cf       	rjmp	.-4      	; 0xa6e <eeprom_write_r18>
 a72:	1c ba       	out	0x1c, r1	; 28
 a74:	9f bb       	out	0x1f, r25	; 31
 a76:	8e bb       	out	0x1e, r24	; 30
 a78:	2d bb       	out	0x1d, r18	; 29
 a7a:	0f b6       	in	r0, 0x3f	; 63
 a7c:	f8 94       	cli
 a7e:	e2 9a       	sbi	0x1c, 2	; 28
 a80:	e1 9a       	sbi	0x1c, 1	; 28
 a82:	0f be       	out	0x3f, r0	; 63
 a84:	01 96       	adiw	r24, 0x01	; 1
 a86:	08 95       	ret

00000a88 <_exit>:
exit():
 a88:	f8 94       	cli

00000a8a <__stop_program>:
__stop_program():
 a8a:	ff cf       	rjmp	.-2      	; 0xa8a <__stop_program>
